C51 COMPILER V8.06   STOE                                                                  03/10/2026 15:30:55 PAGE 1   


C51 COMPILER V8.06, COMPILATION OF MODULE STOE
OBJECT MODULE PLACED IN stoe.obj
COMPILER INVOKED BY: C:\Keil\C51\BIN\C51.EXE src\ethernet\stoe.c LARGE OMF2 ROM(D16M) OPTIMIZE(9,SPEED) BROWSE INTVECTOR
                    -(0X6020) INCDIR(.\src\cpu\;.\src\ethernet;.\src\swdma\;.\src\mstimer\;.\src\uart\;.\src\main\;.\src\tcpip\;.\src\hsur\;.
                    -\src\gs2e\;.\src\debug\;.\src\dhcp;.\src\dns\;.\src\adapter\;.\src\pppoe\;.\src\console;.\src\telnet;.\src\smtp;.\src\ht
                    -tp;.\src\web_page;.\src\si2c;.\src\eeprom;.\src\ping;.\src\fpga;.\src\menu;.\src\hid;.\src\flash) DEFINE(RuntimeCodeAt24
                    -KH) VARBANKING DEBUG CODE LISTINCLUDE SYMBOLS PRINT(.\tmp\stoe.lst) PREPRINT(.\tmp\stoe.i) OBJECT(stoe.obj)

line level    source

   1          //----------------------------------------------------------------------------------------
   2          //   Copyright (c) 2006 ASIX Electronic Corporation      All rights reserved.
   3          // 
   4          //   This is unpublished proprietary source code of ASIX Electronic Corporation
   5          // 
   6          //   The copyright notice above does not evidence any actual or intended
   7          //   publication of such source code.
   8          //----------------------------------------------------------------------------------------
   9          // Module Name: stoe.c
  10          // Purpose:
  11          // Author:
  12          // Date:
  13          // Notes:
  14          // $Log: stoe.c,v $
  15          //----------------------------------------------------------------------------------------
  16          // Revision 1.1.1.1  2006/06/20 05:50:28  borbin
  17          // no message
  18          //----------------------------------------------------------------------------------------
  19          
  20          // INCLUDE FILE DECLARATIONS
  21          #include "reg80390.h"
   1      =1  //--------------------------------------------------------------------------
   2      =1  // AX110XX.H
   3      =1  //
   4      =1  // Header file for the AX110XX.
   5      =1  // Copyright (c) 2001 Keil Software, Inc.  All rights reserved.
   6      =1  //--------------------------------------------------------------------------
   7      =1  //
   8      =1  // --------------------------------------------------------------------------*/
   9      =1  // Make sure that this file gets included only once.
  10      =1  // --------------------------------------------------------------------------*/
  11      =1  #ifndef AX110XX_HEADER_FILE
  12      =1  #define AX110XX_HEADER_FILE             1
  13      =1  // --------------------------------------------------------------------------*/
  14      =1  // Byte Registers
  15      =1  // --------------------------------------------------------------------------*/
  16      =1  sfr     P0                      = 0x80;// Port 0
  17      =1  sfr     SP                      = 0x81;// Stack Pointer
  18      =1  sfr     DPL0            = 0x82;// Data Pointer 0 Low Byte
  19      =1  sfr     DPH0            = 0x83;// Data Pointer 0 High Byte
  20      =1  sfr     DPL                     = 0x82;// Data Pointer 0 Low Byte
  21      =1  sfr     DPH                     = 0x83;// Data Pointer 0 High Byte
  22      =1  sfr     DPL1            = 0x84;// Data Pointer 1 Low Byte
  23      =1  sfr     DPH1            = 0x85;// Data Pointer 1 High Byte
  24      =1  sfr     DPS                     = 0x86;// Data Pointers Select Register
  25      =1  sfr     PCON            = 0x87;// Power Configuration Register
  26      =1  sfr TCON                = 0x88;// Timer 0,1 Configuration Register
  27      =1  sfr TMOD                = 0x89;// Timer 0,1 Control Mode Register
  28      =1  sfr TL0                 = 0x8A;// Timer 0 Low Byte Counter
  29      =1  sfr TL1                 = 0x8B;// Timer 1 Low Byte Counter
  30      =1  sfr TH0                 = 0x8C;// Timer 0 High Byte Counter
C51 COMPILER V8.06   STOE                                                                  03/10/2026 15:30:55 PAGE 2   

  31      =1  sfr TH1                 = 0x8D;// Timer 1 High Byte Counter
  32      =1  sfr CKCON               = 0x8E;// Clock Control Register
  33      =1  sfr CSREPR              = 0x8F;// Software Reset and External Program RAM Select Register
  34      =1  
  35      =1  sfr P1                  = 0x90;// Port 1
  36      =1  sfr EIF                 = 0x91;// Extended Interrupt Flag Register
  37      =1  sfr WTST                = 0x92;// Program Wait States Register
  38      =1  sfr DPX0                = 0x93;// Data Pointer Extended Register 0
  39      =1  sfr DPX                 = 0x93;// Data Pointer Extended Register 0
  40      =1  sfr     SDSTSR          = 0x94;// Software Timer and Software DMA complete interrupt status
  41      =1  sfr DPX1                = 0x95;// Data Pointer Extended Register 1
  42      =1  sfr I2CCIR              = 0x96;// I2C Command Index Register
  43      =1  sfr I2CDR               = 0x97;// I2C Data Register
  44      =1  sfr SCON0               = 0x98;// UART 0 Configuration Register
  45      =1  sfr SBUF0               = 0x99;// UART 0 Buffer Register
  46      =1  sfr DBAR                = 0x9A;// DMA Bus Arbitration Register
  47      =1  sfr DCIR                = 0x9B;// DMA Command Index Register
  48      =1  sfr DDR                 = 0x9C;// DMA Data Register
  49      =1  sfr ACON                = 0x9D;// Address Control Register
  50      =1  sfr PISSR1              = 0x9E;// Peripheral Interrupt Status Summary Register 1
  51      =1  sfr PISSR2              = 0x9F;// Peripheral Interrupt Status Summary Register 2
  52      =1  
  53      =1  sfr P2                  = 0xA0;// Port 2
  54      =1  // Local Bus Master Mode //
  55      =1  sfr LMSR                = 0xA1;// Local Bus Mode Setup Register
  56      =1  sfr LCR                 = 0xA2;// Local Bus Command Register
  57      =1  sfr LSR                 = 0xA3;// Local Bus Status Register
  58      =1  sfr LDALR               = 0xA4;// Local Bus Device Address Low Register
  59      =1  sfr LDAHR               = 0xA5;// Local Bus Device Address High Register
  60      =1  sfr LDCSR               = 0xA6;// Local Bus Device Chip Select Register
  61      =1  // Local Bus Slave Mode //
  62      =1  sfr LSAIER              = 0xA1;// Local Bus Slave mode Action and Interrupt Enable Register
  63      =1  sfr LSCR                = 0xA2;// Local Bus Slave mode Command Register
  64      =1  sfr LSSR                = 0xA3;// Local Bus Slave mode Status Register
  65      =1  sfr XMWLR               = 0xA4;// External Master Write-read Low Register
  66      =1  sfr XMWHR               = 0xA5;// External Master Write-read High Register
  67      =1  sfr XMRLR               = 0xA6;// External Master Read-only Low Register
  68      =1  sfr XMRHR               = 0xA7;// External Master Read-only High Register
  69      =1  
  70      =1  sfr IE                  = 0xA8;// Interrupt Enable register
  71      =1  sfr LDLR                = 0xA9;// Local Bus Data Low Register
  72      =1  sfr LDHR                = 0xAA;// Local Bus Data High Register
  73      =1  sfr DMALR               = 0xAB;// Local Bus DMA Address Low Register
  74      =1  sfr DMAMR               = 0xAC;// Local Bus DMA Address Medium Register
  75      =1  sfr DMAHR               = 0xAD;// Local Bus DMA Address High Register
  76      =1  sfr TCIR                = 0xAE;// TOE Command Index Register
  77      =1  sfr     TDR                     = 0xAF;// TOE Data Register
  78      =1  
  79      =1  sfr P3                  = 0xB0;// Port 3
  80      =1  sfr CCAPL0      = 0xB1;// PCA Module 0 Compare/Capture Low Byte Register
  81      =1  sfr CCAPL1      = 0xB2;// PCA Module 1 Compare/Capture Low Byte Register
  82      =1  sfr CCAPL2      = 0xB3;// PCA Module 2 Compare/Capture Low Byte Register
  83      =1  sfr CCAPL3      = 0xB4;// PCA Module 3 Compare/Capture Low Byte Register
  84      =1  sfr CCAPL4      = 0xB5;// PCA Module 4 Compare/Capture Low Byte Register
  85      =1  sfr MCIR                = 0xB6;// MAC Command Index Register
  86      =1  sfr MDR                 = 0xB7;// MAC Data Register
  87      =1  sfr IP                  = 0xB8;// Interrupt Priority Register
  88      =1  sfr CCAPH0      = 0xB9;// PCA Module 0 Compare/Capture High Byte Register
  89      =1  sfr CCAPH1      = 0xBA;// PCA Module 1 Compare/Capture High Byte Register
  90      =1  sfr CCAPH2      = 0xBB;// PCA Module 2 Compare/Capture High Byte Register
  91      =1  sfr CCAPH3      = 0xBC;// PCA Module 3 Compare/Capture High Byte Register
  92      =1  sfr CCAPH4      = 0xBD;// PCA Module 4 Compare/Capture High Byte Register
C51 COMPILER V8.06   STOE                                                                  03/10/2026 15:30:55 PAGE 3   

  93      =1  sfr EPCR                = 0xBE;// Ethernet PHY Command Index Register
  94      =1  sfr EPDR                = 0xBF;// Ethernet PHY Data Register
  95      =1  
  96      =1  sfr SCON1               = 0xC0;// UART 1 Configuration Register
  97      =1  sfr SBUF1               = 0xC1;// UART 1 Buffer Register
  98      =1  sfr CMOD                = 0xC2;// PCA Timer/Counter Mode Register
  99      =1  sfr CCON                = 0xC3;// PCA Timer/Counter Control Register
 100      =1  sfr CL                  = 0xC4;// PCA Timer/Counter Low
 101      =1  sfr CH                  = 0xC5;// PCA Timer/Counter High
 102      =1  sfr T2CON               = 0xC8;// Timer 2 Configuration Register
 103      =1  sfr T2IF                = 0xC9;// Timer 2 Interrupt Flags
 104      =1  sfr RLDL                = 0xCA;// Timer 2 Reload Low Byte
 105      =1  sfr RLDH                = 0xCB;// Timer 2 Reload High Byte
 106      =1  sfr TL2                 = 0xCC;// Timer 2 Low Byte Counter
 107      =1  sfr TH2                 = 0xCD;// Timer 2 High Byte Counter
 108      =1  sfr SPICIR              = 0xCE;// SPI Command Index Register
 109      =1  sfr SPIDR               = 0xCF;// SPI Data Register
 110      =1  
 111      =1  sfr PSW                 = 0xD0;// Program Status Word
 112      =1  sfr CCAPM0              = 0xD1;// PCA Compare/Capture Module Mode Register 0
 113      =1  sfr CCAPM1              = 0xD2;// PCA Compare/Capture Module Mode Register 1
 114      =1  sfr CCAPM2              = 0xD3;// PCA Compare/Capture Module Mode Register 2
 115      =1  sfr CCAPM3              = 0xD4;// PCA Compare/Capture Module Mode Register 3
 116      =1  sfr CCAPM4              = 0xD5;// PCA Compare/Capture Module Mode Register 4
 117      =1  sfr OWCIR               = 0xD6;// OneWire Command Index Register
 118      =1  sfr OWDR                = 0xD7;// OneWire Data Register
 119      =1  sfr WDCON               = 0xD8;// Watchdog Configuration
 120      =1  sfr CANCIR              = 0xDE;// CAN Bus Command Index Register
 121      =1  sfr CANDR               = 0xDF;// CAN Bus Data Register
 122      =1  
 123      =1  sfr ACC                 = 0xE0;// Accumulator
 124      =1  
 125      =1  // UART2 registers //
 126      =1  sfr     UR2_DLL         = 0xE1;// High Speed UART2 Divisor Latch Low Register
 127      =1  sfr     UR2_THR         = 0xE1;// High Speed UART2 Transmit Holding Register for Writing
 128      =1  sfr     UR2_RBR         = 0xE1;// High Speed UART2 Receive Buffer Register for Reading
 129      =1  sfr     UR2_DLH         = 0xE2;// High Speed UART2 Divisor Latch High Register
 130      =1  sfr     UR2_IER         = 0xE2;// High Speed UART2 Interrupt Enable Register
 131      =1  sfr     UR2_FCR         = 0xE3;// High Speed UART2 FIFO Control Register for Writing
 132      =1  sfr     UR2_IIR         = 0xE3;// High Speed UART2 Interrupt Identification Register for Reading
 133      =1  sfr     UR2_LCR         = 0xE4;// High Speed UART2 Line Control Register
 134      =1  sfr     UR2_MCR         = 0xE5;// High Speed UART2 Modem Control Register
 135      =1  sfr     UR2_LSR         = 0xE6;// High Speed UART2 Line Status Register
 136      =1  sfr     UR2_MSR         = 0xE7;// High Speed UART2 Modem Status Register
 137      =1  
 138      =1  sfr EIE                 = 0xE8;// External Interrupt Enable
 139      =1  sfr STATUS              = 0xE9;// Status Register
 140      =1  sfr MXAX                = 0xEA;// MOVX @Ri Extended Register
 141      =1  sfr TA                  = 0xEB;// Timed Access Protection
 142      =1  
 143      =1  sfr B                   = 0xF0;// B Working Register
 144      =1  sfr EIP                 = 0xF8;// Extended Interrupt Priority Register
 145      =1  sfr MD0                 = 0xF9;// MDU Data 0
 146      =1  sfr MD1                 = 0xFA;// MDU Data 1
 147      =1  sfr MD2                 = 0xFB;// MDU Data 2
 148      =1  sfr MD3                 = 0xFC;// MDU Data 3
 149      =1  sfr MD4                 = 0xFD;// MDU Data 4
 150      =1  sfr MD5                 = 0xFE;// MDU Data 5
 151      =1  sfr ARCON               = 0xFF;// MDU Control Register
 152      =1  //--------------------------------------------------------------------------
 153      =1  // P0 (0x80) Bit Registers
 154      =1  //--------------------------------------------------------------------------
C51 COMPILER V8.06   STOE                                                                  03/10/2026 15:30:55 PAGE 4   

 155      =1  sbit P0_0               = 0x80;
 156      =1  sbit P0_1               = 0x81;
 157      =1  sbit P0_2               = 0x82;
 158      =1  sbit P0_3               = 0x83;
 159      =1  sbit P0_4               = 0x84;
 160      =1  sbit P0_5               = 0x85;
 161      =1  sbit P0_6               = 0x86;
 162      =1  sbit P0_7               = 0x87;
 163      =1  //--------------------------------------------------------------------------
 164      =1  // DPS (0x86) Bit Values
 165      =1  //--------------------------------------------------------------------------
 166      =1  #define SEL_    0x01
 167      =1  #define TSL_    0x20
 168      =1  #define ID0_    0x40
 169      =1  #define ID1_    0x80
 170      =1  //--------------------------------------------------------------------------
 171      =1  // PCON (0x87) Bit Values
 172      =1  //--------------------------------------------------------------------------
 173      =1  #define PMM_    0x01
 174      =1  #define STOP_   0x02
 175      =1  #define SWB_    0x04
 176      =1  #define PWE_    0x10
 177      =1  #define SMOD1_  0x40
 178      =1  #define SMOD2_  0x80
 179      =1  //--------------------------------------------------------------------------
 180      =1  // TCON (0x88) Bit Registers
 181      =1  //--------------------------------------------------------------------------
 182      =1  sbit    IT0             = 0x88;
 183      =1  sbit    IE0             = 0x89;
 184      =1  sbit    IT1             = 0x8A;
 185      =1  sbit    IE1             = 0x8B;
 186      =1  sbit    TR0             = 0x8C;
 187      =1  sbit    TF0             = 0x8D;
 188      =1  sbit    TR1             = 0x8E;
 189      =1  sbit    TF1             = 0x8F;
 190      =1  //--------------------------------------------------------------------------
 191      =1  // TMOD (0x89) Bit Values
 192      =1  //--------------------------------------------------------------------------
 193      =1  #define T0_M0_          0x01
 194      =1  #define T0_M1_          0x02
 195      =1  #define T0_CT_          0x04
 196      =1  #define T0_GATE_        0x08
 197      =1  #define T1_M0_          0x10
 198      =1  #define T1_M1_          0x20
 199      =1  #define T1_CT_          0x40
 200      =1  #define T1_GATE_        0x80
 201      =1  
 202      =1  #define T1_MASK_        0xF0
 203      =1  #define T0_MASK_        0x0F
 204      =1  //--------------------------------------------------------------------------
 205      =1  // CKCON (0x8E) Bit Values
 206      =1  //--------------------------------------------------------------------------
 207      =1  #define MD0_    0x01
 208      =1  #define MD1_    0x02
 209      =1  #define MD2_    0x04
 210      =1  #define T0M_    0x08
 211      =1  #define T1M_    0x10
 212      =1  #define T2M_    0x20
 213      =1  #define WD0_    0x40
 214      =1  #define WD1_    0x80
 215      =1  //--------------------------------------------------------------------------
 216      =1  // CSREPR (0x8F) Bit Values
C51 COMPILER V8.06   STOE                                                                  03/10/2026 15:30:55 PAGE 5   

 217      =1  //--------------------------------------------------------------------------
 218      =1  #define SW_RST                          0x01
 219      =1  #define SW_RBT                          0x02
 220      =1  #define FARM                            0x04
 221      =1  #define FAES                            0x08
 222      =1  #define PMS                                     0x10
 223      =1  #define SCS_100M                        0xC0
 224      =1  #define SCS_75M                         0x80
 225      =1  #define SCS_50M                         0x40
 226      =1  #define SCS_25M                         0x00
 227      =1  //--------------------------------------------------------------------------
 228      =1  // P1 (0x90) Bit Registers
 229      =1  //--------------------------------------------------------------------------
 230      =1  sbit P1_0               = 0x90;
 231      =1  sbit P1_1               = 0x91;
 232      =1  sbit P1_2               = 0x92;
 233      =1  sbit P1_3               = 0x93;
 234      =1  sbit P1_4               = 0x94;
 235      =1  sbit P1_5               = 0x95;
 236      =1  sbit P1_6               = 0x96;
 237      =1  sbit P1_7               = 0x97;
 238      =1  //--------------------------------------------------------------------------
 239      =1  // EIF (0x91) Bit Values
 240      =1  //--------------------------------------------------------------------------
 241      =1  #define INT2F           0x01
 242      =1  #define INT3F           0x02
 243      =1  #define INT4F           0x04
 244      =1  #define INT5F           0x08
 245      =1  #define INT6F           0x10
 246      =1  //--------------------------------------------------------------------------
 247      =1  // SCON0 (0x98) Bit Registers
 248      =1  //--------------------------------------------------------------------------
 249      =1  sbit RI0                        = 0x98;
 250      =1  sbit TI0                        = 0x99;
 251      =1  sbit RB08                       = 0x9A;
 252      =1  sbit TB08                       = 0x9B;
 253      =1  sbit REN0                       = 0x9C;
 254      =1  sbit SM02                       = 0x9D;
 255      =1  sbit SM01                       = 0x9E;
 256      =1  sbit SM00                       = 0x9F;
 257      =1  //--------------------------------------------------------------------------
 258      =1  // DBAR (0x9A) Bit Values
 259      =1  //--------------------------------------------------------------------------
 260      =1  #define BUS_REQ                         0x01
 261      =1  #define BUS_GRANT                       0x80
 262      =1  //--------------------------------------------------------------------------
 263      =1  // ACON (0x9D) Bit Values
 264      =1  //--------------------------------------------------------------------------
 265      =1  #define FLAT_MODE                       0x02
 266      =1  #define LARGE_MODE                      0x00
 267      =1  //--------------------------------------------------------------------------
 268      =1  // PISSR1 (0x9E) Bit Values
 269      =1  //--------------------------------------------------------------------------
 270      =1  #define LB_INT_STU                      0x01
 271      =1  #define LB_EXT_INT_STU          0x02
 272      =1  #define ETH_INT_STU                     0x04
 273      =1  #define TOE_INT_STU                     0x08
 274      =1  #define OW_INT_STU                      0x10
 275      =1  #define SPI_INT_STU                     0x20
 276      =1  #define I2C_INT_STU                     0x40
 277      =1  #define CAN_INT_STU                     0x80
 278      =1  //--------------------------------------------------------------------------
C51 COMPILER V8.06   STOE                                                                  03/10/2026 15:30:55 PAGE 6   

 279      =1  // PISSR2 (0x9F) Bit Values
 280      =1  //--------------------------------------------------------------------------
 281      =1  #define UART2_INT_STU           0x01
 282      =1  //--------------------------------------------------------------------------
 283      =1  // P2 (0xA0) Bit Registers
 284      =1  //--------------------------------------------------------------------------
 285      =1  sbit P2_0               = 0xA0;
 286      =1  sbit P2_1               = 0xA1;
 287      =1  sbit P2_2               = 0xA2;
 288      =1  sbit P2_3               = 0xA3;
 289      =1  sbit P2_4               = 0xA4;
 290      =1  sbit P2_5               = 0xA5;
 291      =1  sbit P2_6               = 0xA6;
 292      =1  sbit P2_7               = 0xA7;
 293      =1  //--------------------------------------------------------------------------
 294      =1  // IE (0xA8) Bit Registers
 295      =1  //--------------------------------------------------------------------------
 296      =1  sbit EX0                    = 0xA8;                                                       // 1=Enable Exte
             -rnal interrupt 0
 297      =1  sbit ET0                    = 0xA9;                                                       // 1=Enable Time
             -r 0 interrupt
 298      =1  sbit EX1                    = 0xAA;                                                       // 1=Enable Exte
             -rnal interrupt 1
 299      =1  sbit ET1                    = 0xAB;                                                       // 1=Enable Time
             -r 1 interrupt
 300      =1  sbit ES0                    = 0xAC;                                                       // 1=Enable Seri
             -al port 0 interrupt
 301      =1  sbit ET2                    = 0xAD;                                                       // 1=Enable Time
             -r 2 interrupt
 302      =1  sbit ES1                    = 0xAE;                                                       // 1=Enable Seri
             -al port 1 interrupt
 303      =1  sbit EA                     = 0xAF;                                                       // 0=Disabe all 
             -interrupts
 304      =1  //--------------------------------------------------------------------------
 305      =1  // P3 (0xB0) Bit Registers (Mnemonics & Ports)
 306      =1  //--------------------------------------------------------------------------
 307      =1  sbit P3_0               = 0xB0;
 308      =1  sbit P3_1               = 0xB1;
 309      =1  sbit P3_2               = 0xB2;
 310      =1  sbit P3_3               = 0xB3;
 311      =1  sbit P3_4               = 0xB4;
 312      =1  sbit P3_5               = 0xB5;
 313      =1  sbit P3_6               = 0xB6;
 314      =1  sbit P3_7               = 0xB7;
 315      =1  
 316      =1  sbit RXD                    = 0xB0;                                                       // Serial data i
             -nput
 317      =1  sbit TXD                    = 0xB1;                                                       // Serial data o
             -utput
 318      =1  sbit INT0                   = 0xB2;                                                       // External inte
             -rrupt 0
 319      =1  sbit INT1                   = 0xB3;                                                       // External inte
             -rrupt 1
 320      =1  sbit T0                     = 0xB4;                                                       // Timer 0 exter
             -nal input
 321      =1  sbit T1                     = 0xB5;                                                       // Timer 1 exter
             -nal input
 322      =1  sbit WR                     = 0xB6;                                                       // External data
             - memory write strobe
 323      =1  sbit RD                     = 0xB7;                                                       // External data
             - memory read strobe
 324      =1  //--------------------------------------------------------------------------
C51 COMPILER V8.06   STOE                                                                  03/10/2026 15:30:55 PAGE 7   

 325      =1  // IP (0xB8) Bit Registers
 326      =1  //--------------------------------------------------------------------------
 327      =1  sbit PX0                = 0xB8;
 328      =1  sbit PT0                = 0xB9;
 329      =1  sbit PX1                = 0xBA;
 330      =1  sbit PT1                = 0xBB;
 331      =1  sbit PS0                = 0xBC;
 332      =1  sbit PT2                = 0xBD;
 333      =1  sbit PS1                = 0xBE;
 334      =1  //--------------------------------------------------------------------------
 335      =1  // SCON1 (0xC0) Bit Registers
 336      =1  //--------------------------------------------------------------------------
 337      =1  sbit RI1                = 0xC0;
 338      =1  sbit TI1                = 0xC1;
 339      =1  sbit RB18               = 0xC2;
 340      =1  sbit TB18               = 0xC3;
 341      =1  sbit REN1               = 0xC4;
 342      =1  sbit SM12               = 0xC5;
 343      =1  sbit SM11               = 0xC6;
 344      =1  sbit SM10               = 0xC7;
 345      =1  //--------------------------------------------------------------------------
 346      =1  // CMOM (0xC2) Bit Values
 347      =1  //--------------------------------------------------------------------------
 348      =1  #define PCA_ECF                 0x01
 349      =1  #define PCA_T0_OF               0x08
 350      =1  #define PCA_EXT_CLK             0x0E
 351      =1  #define PCA_GATE_OFF    0x80
 352      =1  //--------------------------------------------------------------------------
 353      =1  // CCON (0xC3) Bit Values
 354      =1  //--------------------------------------------------------------------------
 355      =1  #define PCA_CCF0                0x01
 356      =1  #define PCA_CCF1                0x02
 357      =1  #define PCA_CCF2                0x04
 358      =1  #define PCA_CCF3                0x08
 359      =1  #define PCA_CCF4                0x10
 360      =1  #define PCA_CR                  0x40
 361      =1  #define PCA_CF                  0x80
 362      =1  //--------------------------------------------------------------------------
 363      =1  // T2CON (0xC8) Bit Registers
 364      =1  //--------------------------------------------------------------------------
 365      =1  sbit CPRL2              = 0xC8;
 366      =1  sbit CT2                = 0xC9;
 367      =1  sbit TR2                = 0xCA;
 368      =1  sbit EXEN2              = 0xCB;
 369      =1  sbit TCLK               = 0xCC;
 370      =1  sbit RCLK               = 0xCD;
 371      =1  sbit EXF2               = 0xCE;
 372      =1  sbit TF2                = 0xCF;
 373      =1  //--------------------------------------------------------------------------
 374      =1  // PSW (0xD0) Bit Registers
 375      =1  //--------------------------------------------------------------------------
 376      =1  sbit P                  = 0xD0;
 377      =1  sbit F1                 = 0xD1;
 378      =1  sbit OV                 = 0xD2;
 379      =1  sbit RS0                = 0xD3;
 380      =1  sbit RS1                = 0xD4;
 381      =1  sbit F0                 = 0xD5;
 382      =1  sbit AC                 = 0xD6;
 383      =1  sbit CY                 = 0xD7;
 384      =1  //--------------------------------------------------------------------------
 385      =1  // CCAPM0-4 (0xD1-0xD5) Bit Values
 386      =1  //--------------------------------------------------------------------------
C51 COMPILER V8.06   STOE                                                                  03/10/2026 15:30:55 PAGE 8   

 387      =1  #define ECCFs           0x01
 388      =1  #define PWMs            0x02
 389      =1  #define TOGs            0x04
 390      =1  #define MATs            0x08
 391      =1  #define CAPNs           0x10
 392      =1  #define CAPPs           0x20
 393      =1  #define ECOMs           0x40
 394      =1  #define CEXs            0x80
 395      =1  //--------------------------------------------------------------------------
 396      =1  // PSW (0xD8) Bit Registers
 397      =1  //--------------------------------------------------------------------------
 398      =1  sbit RWT                = 0xD8;
 399      =1  sbit EWT                = 0xD9;
 400      =1  sbit WTRF               = 0xDA;
 401      =1  sbit WDIF               = 0xDB;
 402      =1  
 403      =1  //--------------------------------------------------------------------------
 404      =1  // Interrupt Vectors:
 405      =1  // Interrupt Address = (Number * 8) + 3
 406      =1  //--------------------------------------------------------------------------
 407      =1  #define IE0_VECTOR            0                                                           // 0x03 External
             - Interrupt 0
 408      =1  #define TF0_VECTOR            1                                                           // 0x0B Timer 0
 409      =1  #define IE1_VECTOR            2                                                           // 0x13 External
             - Interrupt
 410      =1  #define TF1_VECTOR            3                                                           // 0x1B Timer 1
 411      =1  #define SIO_VECTOR            4                                                           // 0x23 Serial p
             -ort
 412      =1  //--------------------------------------------------------------------------
 413      =1  // UR2_IER (0xE2) Bit Values
 414      =1  //--------------------------------------------------------------------------
 415      =1  #define UR2_RDI_ENB             0x01
 416      =1  #define UR2_THRI_ENB    0x02
 417      =1  #define UR2_RLSI_ENB    0x04
 418      =1  #define UR2_MSI_ENB             0x08
 419      =1  //--------------------------------------------------------------------------
 420      =1  // UR2_IIR (0xE3) Bit Values
 421      =1  //--------------------------------------------------------------------------
 422      =1  #define UR2_NONE_INTR           0x01
 423      =1  #define UR2_RLS_INTR            0x06
 424      =1  #define UR2_RD_TRIG_INTR        0x04
 425      =1  #define UR2_RD_TI_INTR          0x0C
 426      =1  #define UR2_THRE_INTR           0x02
 427      =1  #define UR2_MS_INTR                     0x00
 428      =1  //--------------------------------------------------------------------------
 429      =1  // UR2_FCR (0xE3) Bit Values
 430      =1  //--------------------------------------------------------------------------
 431      =1  #define UR2_FIFO_MODE   0x01
 432      =1  #define UR2_RXFIFO_RST  0x02
 433      =1  #define UR2_TXFIFO_RST  0x04
 434      =1  #define UR2_TRIG_01             0x00
 435      =1  #define UR2_TRIG_04             0x40
 436      =1  #define UR2_TRIG_08             0x80
 437      =1  #define UR2_TRIG_14             0xC0
 438      =1  //--------------------------------------------------------------------------
 439      =1  // UR2_LCR (0xE4) Bit Values
 440      =1  //--------------------------------------------------------------------------
 441      =1  #define UR2_CHAR_5                      0x00
 442      =1  #define UR2_CHAR_6                      0x01
 443      =1  #define UR2_CHAR_7                      0x02
 444      =1  #define UR2_CHAR_8                      0x03
 445      =1  #define UR2_STOP_10                     0x00
C51 COMPILER V8.06   STOE                                                                  03/10/2026 15:30:55 PAGE 9   

 446      =1  #define UR2_STOP_15                     0x04
 447      =1  #define UR2_PARITY_ENB          0x08
 448      =1  #define UR2_EVEN_PARITY         0x10
 449      =1  #define UR2_STICK_PARITY        0x20
 450      =1  #define UR2_BREAK_ENB           0x40
 451      =1  #define UR2_DLAB_ENB            0x80
 452      =1  //--------------------------------------------------------------------------
 453      =1  // UR2_MCR (0xE5) Bit Values
 454      =1  //--------------------------------------------------------------------------
 455      =1  #define UR2_DTR                         0x01
 456      =1  #define UR2_RTS                         0x02
 457      =1  #define UR2_OUT1                        0x04
 458      =1  #define UR2_OUT2                        0x08
 459      =1  #define UR2_LOOPBACK            0x10
 460      =1  #define UR2_RS485_RECEIVE       0x40
 461      =1  #define UR2_RS485_DRIVE         0x80
 462      =1  //--------------------------------------------------------------------------
 463      =1  // UR2_LSR (0xE6) Bit Values
 464      =1  //--------------------------------------------------------------------------
 465      =1  #define UR2_DR                          0x01
 466      =1  #define UR2_OE                          0x02
 467      =1  #define UR2_PE                          0x04
 468      =1  #define UR2_FE                          0x08
 469      =1  #define UR2_BI                          0x10
 470      =1  #define UR2_THRE                        0x20
 471      =1  #define UR2_TEMT                        0x40
 472      =1  #define UR2_FRAME_ERR           0x80
 473      =1  //--------------------------------------------------------------------------
 474      =1  // UR2_MSR (0xE7) Bit Values
 475      =1  //--------------------------------------------------------------------------
 476      =1  #define UR2_DCTS                        0x01
 477      =1  #define UR2_DDSR                        0x02
 478      =1  #define UR2_TERI                        0x04
 479      =1  #define UR2_DDCD                        0x08
 480      =1  #define UR2_CTS                         0x10
 481      =1  #define UR2_DSR                         0x20
 482      =1  #define UR2_RI                          0x40
 483      =1  #define UR2_DCD                         0x80
 484      =1  //--------------------------------------------------------------------------
 485      =1  // EIE (0xE8) Bit Registers
 486      =1  //--------------------------------------------------------------------------
 487      =1  sbit EINT2              = 0xE8;
 488      =1  sbit EINT3              = 0xE9;
 489      =1  sbit EINT4              = 0xEA;
 490      =1  sbit EINT5              = 0xEB;
 491      =1  sbit EINT6              = 0xEC;
 492      =1  sbit EWDI               = 0xED;
 493      =1  //--------------------------------------------------------------------------
 494      =1  // EIP (0xF8) Bit Registers
 495      =1  //--------------------------------------------------------------------------
 496      =1  sbit PINT2              = 0xF8;
 497      =1  sbit PINT3              = 0xF9;
 498      =1  sbit PINT4              = 0xFA;
 499      =1  sbit PINT5              = 0xFB;
 500      =1  sbit PINT6              = 0xFC;
 501      =1  sbit PWDI               = 0xFD;
 502      =1  //--------------------------------------------------------------------------
 503      =1  //--------------------------------------------------------------------------
 504      =1  #endif
  22          #include "stoe.h"
   1      =1  //=============================================================================
   2      =1  //     Copyright (c) 2006       ASIX Electronic Corporation      All rights reserved.
C51 COMPILER V8.06   STOE                                                                  03/10/2026 15:30:55 PAGE 10  

   3      =1  //
   4      =1  //     This is unpublished proprietary source code of ASIX Electronic Corporation
   5      =1  //
   6      =1  //     The copyright notice above does not evidence any actual or intended
   7      =1  //     publication of such source code.
   8      =1  //=============================================================================
   9      =1  // Module Name: stoe.h
  10      =1  // Purpose:
  11      =1  // Author:
  12      =1  // Date:
  13      =1  // Notes:
  14      =1  // $Log: stoe.h,v $
  15      =1  // Revision 1.1.1.1  2006/06/20 05:50:28  borbin
  16      =1  // no message
  17      =1  //=============================================================================
  18      =1  
  19      =1  #ifndef __STOE_H__
  20      =1  #define __STOE_H__
  21      =1  
  22      =1  
  23      =1  // INCLUDE FILE DECLARATIONS //
  24      =1  #include "types.h"
   1      =2  //----------------------------------------------------------------------------------------
   2      =2  //     Copyright (c) 2005       Simtek, Incorporated      All rights reserved.
   3      =2  //
   4      =2  //     This is unpublished proprietary source code of Simtek, Inc
   5      =2  //
   6      =2  //     The copyright notice above does not evidence any actual or intended
   7      =2  //     publication of such source code.
   8      =2  //----------------------------------------------------------------------------------------
   9      =2  // Module Name : types.h
  10      =2  // Purpose     : Definition of type.
  11      =2  // Author      : Robin Lee
  12      =2  // Date        : 2005-12-28
  13      =2  // Notes       : None.
  14      =2  // $Log: types.h,v $
  15      =2  //----------------------------------------------------------------------------------------
  16      =2  // Revision 1.2  2006/05/18 05:02:30  Louis
  17      =2  // no message
  18      =2  //----------------------------------------------------------------------------------------
  19      =2  // Revision 1.1  2006/04/07 11:36:17  robin6633
  20      =2  // no message
  21      =2  //----------------------------------------------------------------------------------------
  22      =2  
  23      =2  #ifndef TYPES_H
  24      =2  #define TYPES_H
  25      =2  
  26      =2  typedef unsigned short int          bool;                                                 // boolean
  27      =2  typedef unsigned char               byte;                                                 //  8-bit unsign
             -ed
  28      =2  typedef unsigned short int          uint;                                                 // 16-bit unsign
             -ed
  29      =2  typedef short int                   sint;                                                 // 16-bit signed
  30      =2  typedef unsigned long               ulong;                                                // 32-bit unsign
             -ed
  31      =2  typedef unsigned short int          word;                                                 // 16-bit unsign
             -ed
  32      =2  
  33      =2  #ifndef NULL
  34      =2    #define NULL ((void *) 0L)
  35      =2  #endif
  36      =2  
C51 COMPILER V8.06   STOE                                                                  03/10/2026 15:30:55 PAGE 11  

  37      =2  #define TRUE                  1
  38      =2  #define FALSE                 0
  39      =2  #define ON                    1
  40      =2  #define OFF                   0
  41      =2  #define Client                1
  42      =2  #define Server                0
  43      =2  
  44      =2  // Bit Definitions for Bitwise Operation //
  45      =2  #define BIT0            0x01
  46      =2  #define BIT1            0x02
  47      =2  #define BIT2            0x04
  48      =2  #define BIT3            0x08
  49      =2  #define BIT4            0x10
  50      =2  #define BIT5            0x20
  51      =2  #define BIT6            0x40
  52      =2  #define BIT7            0x80
  53      =2  #define BIT8            0x0100
  54      =2  #define BIT9            0x0200
  55      =2  #define BIT10           0x0400
  56      =2  #define BIT11           0x0800
  57      =2  #define BIT12           0x1000
  58      =2  #define BIT13           0x2000
  59      =2  #define BIT14           0x4000
  60      =2  #define BIT15           0x8000
  61      =2  #define BIT16           0x00010000
  62      =2  #define BIT17           0x00020000
  63      =2  #define BIT18           0x00040000
  64      =2  #define BIT19           0x00080000
  65      =2  #define BIT20           0x00100000
  66      =2  #define BIT21           0x00200000
  67      =2  #define BIT22           0x00400000
  68      =2  #define BIT23           0x00800000
  69      =2  #define BIT24           0x01000000
  70      =2  #define BIT25           0x02000000
  71      =2  #define BIT26           0x04000000
  72      =2  #define BIT27           0x08000000
  73      =2  #define BIT28           0x10000000
  74      =2  #define BIT29           0x20000000
  75      =2  #define BIT30           0x40000000
  76      =2  #define BIT31           0x80000000
  77      =2  
  78      =2  #define LOW_BYTE(dat)   (byte) (dat & 0x00FF)
  79      =2  #define HIGH_BYTE(dat)  (byte)((dat & 0xFF00) >> 8)
  80      =2  
  81      =2  #define U32BYTE0(dat)   (byte) (dat  & 0x000000FF)
  82      =2  #define U32BYTE1(dat)   (byte)((dat  & 0x0000FF00) >> 8)
  83      =2  #define U32BYTE2(dat)   (byte)((dat  & 0x00FF0000) >> 16)
  84      =2  #define U32BYTE3(dat)   (byte)((dat  & 0xFF000000) >> 24)
  85      =2   
  86      =2  // Keil compiler user define //
  87      =2  #define     KEIL_CPL
  88      =2  
  89      =2  #ifdef KEIL_CPL
  90      =2   #define XDATA    xdata
  91      =2   #define IDATA    idata
  92      =2   #define BDATA    bdata
  93      =2   #define CODE     code
  94      =2   #define FAR      far
  95      =2  #else
           =2  #define XDATA
           =2  #define IDATA
           =2  #define BDATA
C51 COMPILER V8.06   STOE                                                                  03/10/2026 15:30:55 PAGE 12  

           =2  #define CODE
           =2  #define FAR
           =2 #endif
 102      =2  
 103      =2  // Serial interface command direction //
 104      =2  #define     SI_WR                   BIT0
 105      =2  #define     SI_RD                   BIT1
 106      =2  
 107      =2  #define     FLASH_WR_ENB            (PCON |= PWE_)
 108      =2  #define     FLASH_WR_DISB           (PCON &= ~PWE_)
 109      =2  
 110      =2  #endif  // end of TYPES_H //
  25      =1  #include "stoe_cfg.h"
   1      =2  //========================================================================================
   2      =2  //     Copyright (c) 2006     ASIX Electronic Corporation      All rights reserved.
   3      =2  //
   4      =2  //     This is unpublished proprietary source code of ASIX Electronic Corporation
   5      =2  //
   6      =2  //     The copyright notice above does not evidence any actual or intended
   7      =2  //     publication of such source code.
   8      =2  //========================================================================================
   9      =2  // Module Name    : stoe_cfg.h
  10      =2  // Purpose        : 
  11      =2  // Author         :
  12      =2  // Date           :
  13      =2  // Notes          :
  14      =2  // $Log           : stoe_cfg.h,v $
  15      =2  //~~~~~~~~~~~~~~~~~~~~~~~~~~~~~~~~~~~~~~~~~~~~~~~~~~~~~~~~~~~~~~~~~~~~~~~~~~~~~~~~~~~~~~~~
  16      =2  // Revision 1.2      2006/07/25 05:32:12  borbin
  17      =2  // no message
  18      =2  //~~~~~~~~~~~~~~~~~~~~~~~~~~~~~~~~~~~~~~~~~~~~~~~~~~~~~~~~~~~~~~~~~~~~~~~~~~~~~~~~~~~~~~~~
  19      =2  // Revision 1.1.1.1  2006/06/20 05:50:28  borbin
  20      =2  // no message
  21      =2  //~~~~~~~~~~~~~~~~~~~~~~~~~~~~~~~~~~~~~~~~~~~~~~~~~~~~~~~~~~~~~~~~~~~~~~~~~~~~~~~~~~~~~~~~
  22      =2  //========================================================================================
  23      =2  //
  24      =2  #ifndef __STOE_CFG_H__
  25      =2  #define __STOE_CFG_H__
  26      =2  //          INCLUDE FILE DECLARATIONS                                                     //
  27      =2  //----------------------------------------------------------------------------------------
  28      =2  #define PAGES_OF_XMIT                           8                                         // pages. 2k // 
             -//16     // pages, 4k //
  29      =2  #define PAGES_OF_RCV                            16                                        // pages. 4k // 
             -//24  // pages, 6k //
  30      =2  //----------------------------------------------------------------------------------------
  31      =2  #define STOE_ARP_TIMEOUT                        16                                        // hardware arp 
             -table timeout is 128 sec. //
  32      =2  //----------------------------------------------------------------------------------------
  33      =2  //          NAMING CONSTANT DECLARATIONS                                                  //
  34      =2  //----------------------------------------------------------------------------------------
  35      =2  #define STOE_HW_CHECKSUN_DISABLE                0                                         //    0: disable
             - stoe checksum offload engine //
  36      =2  #define STOE_HW_CHECKSUN_ENABLE                 1                                         //    1: enable 
             -stoe checksum offload engine. //
  37      =2  #define STOE_CHECKSUM_OFFLOAD                   (STOE_HW_CHECKSUN_ENABLE)                 //
  38      =2  //----------------------------------------------------------------------------------------
  39      =2  #endif                                    //    End of __STOE_CFG_H__         //
  40      =2  // End of stoe_cfg.h //
  26      =1  #include "mac.h"
   1      =2  //----------------------------------------------------------------------------------------
   2      =2  //     Copyright (c) 2006     ASIX Electronic Corporation      All rights reserved.
   3      =2  //
C51 COMPILER V8.06   STOE                                                                  03/10/2026 15:30:55 PAGE 13  

   4      =2  //     This is unpublished proprietary source code of ASIX Electronic Corporation
   5      =2  //
   6      =2  //     The copyright notice above does not evidence any actual or intended
   7      =2  //     publication of such source code.
   8      =2  //----------------------------------------------------------------------------------------
   9      =2  // Module Name: mac.h
  10      =2  // Purpose:
  11      =2  // Author:
  12      =2  // Date:
  13      =2  // Notes:
  14      =2  // $Log: mac.h,v $
  15      =2  //----------------------------------------------------------------------------------------
  16      =2  // Revision 1.1.1.1  2006/06/20 05:50:28  borbin
  17      =2  // no message
  18      =2  //----------------------------------------------------------------------------------------
  19      =2  
  20      =2  #ifndef __MAC_H__
  21      =2  #define __MAC_H__
  22      =2  
  23      =2  // INCLUDE FILE DECLARATIONS //
  24      =2  #include "types.h"
   1      =3  //----------------------------------------------------------------------------------------
   2      =3  //     Copyright (c) 2005       Simtek, Incorporated      All rights reserved.
   3      =3  //
   4      =3  //     This is unpublished proprietary source code of Simtek, Inc
   5      =3  //
   6      =3  //     The copyright notice above does not evidence any actual or intended
   7      =3  //     publication of such source code.
   8      =3  //----------------------------------------------------------------------------------------
   9      =3  // Module Name : types.h
  10      =3  // Purpose     : Definition of type.
  11      =3  // Author      : Robin Lee
  12      =3  // Date        : 2005-12-28
  13      =3  // Notes       : None.
  14      =3  // $Log: types.h,v $
  15      =3  //----------------------------------------------------------------------------------------
  16      =3  // Revision 1.2  2006/05/18 05:02:30  Louis
  17      =3  // no message
  18      =3  //----------------------------------------------------------------------------------------
  19      =3  // Revision 1.1  2006/04/07 11:36:17  robin6633
  20      =3  // no message
  21      =3  //----------------------------------------------------------------------------------------
  22      =3  
  23      =3  #ifndef TYPES_H
           =3 #define TYPES_H
           =3 
           =3 typedef unsigned short int          bool;                                                 // boolean
           =3 typedef unsigned char               byte;                                                 //  8-bit unsign
             -ed
           =3 typedef unsigned short int          uint;                                                 // 16-bit unsign
             -ed
           =3 typedef short int                   sint;                                                 // 16-bit signed
           =3 typedef unsigned long               ulong;                                                // 32-bit unsign
             -ed
           =3 typedef unsigned short int          word;                                                 // 16-bit unsign
             -ed
           =3 
           =3 #ifndef NULL
           =3   #define NULL ((void *) 0L)
           =3 #endif
           =3 
           =3 #define TRUE                  1
C51 COMPILER V8.06   STOE                                                                  03/10/2026 15:30:55 PAGE 14  

           =3 #define FALSE                 0
           =3 #define ON                    1
           =3 #define OFF                   0
           =3 #define Client                1
           =3 #define Server                0
           =3 
           =3 // Bit Definitions for Bitwise Operation //
           =3 #define BIT0            0x01
           =3 #define BIT1            0x02
           =3 #define BIT2            0x04
           =3 #define BIT3            0x08
           =3 #define BIT4            0x10
           =3 #define BIT5            0x20
           =3 #define BIT6            0x40
           =3 #define BIT7            0x80
           =3 #define BIT8            0x0100
           =3 #define BIT9            0x0200
           =3 #define BIT10           0x0400
           =3 #define BIT11           0x0800
           =3 #define BIT12           0x1000
           =3 #define BIT13           0x2000
           =3 #define BIT14           0x4000
           =3 #define BIT15           0x8000
           =3 #define BIT16           0x00010000
           =3 #define BIT17           0x00020000
           =3 #define BIT18           0x00040000
           =3 #define BIT19           0x00080000
           =3 #define BIT20           0x00100000
           =3 #define BIT21           0x00200000
           =3 #define BIT22           0x00400000
           =3 #define BIT23           0x00800000
           =3 #define BIT24           0x01000000
           =3 #define BIT25           0x02000000
           =3 #define BIT26           0x04000000
           =3 #define BIT27           0x08000000
           =3 #define BIT28           0x10000000
           =3 #define BIT29           0x20000000
           =3 #define BIT30           0x40000000
           =3 #define BIT31           0x80000000
           =3 
           =3 #define LOW_BYTE(dat)   (byte) (dat & 0x00FF)
           =3 #define HIGH_BYTE(dat)  (byte)((dat & 0xFF00) >> 8)
           =3 
           =3 #define U32BYTE0(dat)   (byte) (dat  & 0x000000FF)
           =3 #define U32BYTE1(dat)   (byte)((dat  & 0x0000FF00) >> 8)
           =3 #define U32BYTE2(dat)   (byte)((dat  & 0x00FF0000) >> 16)
           =3 #define U32BYTE3(dat)   (byte)((dat  & 0xFF000000) >> 24)
           =3  
           =3 // Keil compiler user define //
           =3 #define     KEIL_CPL
           =3 
           =3 #ifdef KEIL_CPL
           =3  #define XDATA    xdata
           =3  #define IDATA    idata
           =3  #define BDATA    bdata
           =3  #define CODE     code
           =3  #define FAR      far
           =3 #else
           =3  #define XDATA
           =3  #define IDATA
           =3  #define BDATA
           =3  #define CODE
C51 COMPILER V8.06   STOE                                                                  03/10/2026 15:30:55 PAGE 15  

           =3  #define FAR
           =3 #endif
           =3 
           =3 // Serial interface command direction //
           =3 #define     SI_WR                   BIT0
           =3 #define     SI_RD                   BIT1
           =3 
           =3 #define     FLASH_WR_ENB            (PCON |= PWE_)
           =3 #define     FLASH_WR_DISB           (PCON &= ~PWE_)
           =3 
           =3 #endif  // end of TYPES_H //
  25      =2  #include "stoe_cfg.h"
   1      =3  //========================================================================================
   2      =3  //     Copyright (c) 2006     ASIX Electronic Corporation      All rights reserved.
   3      =3  //
   4      =3  //     This is unpublished proprietary source code of ASIX Electronic Corporation
   5      =3  //
   6      =3  //     The copyright notice above does not evidence any actual or intended
   7      =3  //     publication of such source code.
   8      =3  //========================================================================================
   9      =3  // Module Name    : stoe_cfg.h
  10      =3  // Purpose        : 
  11      =3  // Author         :
  12      =3  // Date           :
  13      =3  // Notes          :
  14      =3  // $Log           : stoe_cfg.h,v $
  15      =3  //~~~~~~~~~~~~~~~~~~~~~~~~~~~~~~~~~~~~~~~~~~~~~~~~~~~~~~~~~~~~~~~~~~~~~~~~~~~~~~~~~~~~~~~~
  16      =3  // Revision 1.2      2006/07/25 05:32:12  borbin
  17      =3  // no message
  18      =3  //~~~~~~~~~~~~~~~~~~~~~~~~~~~~~~~~~~~~~~~~~~~~~~~~~~~~~~~~~~~~~~~~~~~~~~~~~~~~~~~~~~~~~~~~
  19      =3  // Revision 1.1.1.1  2006/06/20 05:50:28  borbin
  20      =3  // no message
  21      =3  //~~~~~~~~~~~~~~~~~~~~~~~~~~~~~~~~~~~~~~~~~~~~~~~~~~~~~~~~~~~~~~~~~~~~~~~~~~~~~~~~~~~~~~~~
  22      =3  //========================================================================================
  23      =3  //
  24      =3  #ifndef __STOE_CFG_H__
           =3 #define __STOE_CFG_H__
           =3 //          INCLUDE FILE DECLARATIONS                                                     //
           =3 //----------------------------------------------------------------------------------------
           =3 #define PAGES_OF_XMIT                           8                                         // pages. 2k // 
             -//16     // pages, 4k //
           =3 #define PAGES_OF_RCV                            16                                        // pages. 4k // 
             -//24  // pages, 6k //
           =3 //----------------------------------------------------------------------------------------
           =3 #define STOE_ARP_TIMEOUT                        16                                        // hardware arp 
             -table timeout is 128 sec. //
           =3 //----------------------------------------------------------------------------------------
           =3 //          NAMING CONSTANT DECLARATIONS                                                  //
           =3 //----------------------------------------------------------------------------------------
           =3 #define STOE_HW_CHECKSUN_DISABLE                0                                         //    0: disable
             - stoe checksum offload engine //
           =3 #define STOE_HW_CHECKSUN_ENABLE                 1                                         //    1: enable 
             -stoe checksum offload engine. //
           =3 #define STOE_CHECKSUM_OFFLOAD                   (STOE_HW_CHECKSUN_ENABLE)                 //
           =3 //----------------------------------------------------------------------------------------
           =3 #endif                                    //    End of __STOE_CFG_H__         //
  40      =3  // End of stoe_cfg.h //
  26      =2  
  27      =2  // NAMING CONSTANT DECLARATIONS //
  28      =2  #define MAC_RCV_PROMISCUOUS                             1
  29      =2  #define MAC_RCV_ALL_MULTICAST                   2
  30      =2  #define MAC_RCV_BROADCAST                               4
C51 COMPILER V8.06   STOE                                                                  03/10/2026 15:30:55 PAGE 16  

  31      =2  #define MAC_RCV_MULTICAST                               8
  32      =2  
  33      =2  #define MAC_PRIMARY_PHY_LINK_WAKEUP             1                
  34      =2  #define MAC_MAGIC_PACKET_WAKEUP                 2
  35      =2  #define MAC_EXTERNAL_PIN_WAKEUP                 4
  36      =2  #define MAC_MS_FRAME_WAKEUP                             8
  37      =2  
  38      =2  // MAC register definitions //
  39      =2  #define MAC_SRAM_CMD_REG                                0x00
  40      =2  #define MAC_SRAM_DATA_REG                               0x02
  41      =2  #define MAC_RX_CTL_REG                                  0x0A
  42      =2  #define MAC_IPG_CTL_REG                                 0x0C
  43      =2  #define MAC_ADDR_REG                                    0x10
  44      =2  #define MAC_MULTICASE_REG                               0x16
  45      =2  #define MAC_TEST_REG                                    0x1E
  46      =2  #define MAC_MEDIUM_STATUS_MODE_REG              0x20
  47      =2  #define MAC_PHY_CTL_REG                                 0x22
  48      =2  #define MAC_WAKEUP_INT_ENABLE_REG               0x24
  49      =2  #define MAC_LINK_CHANGE_INT_ENABLE_REG  0x26
  50      =2  #define MAC_WAKEUP_LINK_INT_STATUS_REG  0x28
  51      =2  #define MAC_WAKEUP_FRAME_COMMAND                0x30
  52      =2  #define MAC_WAKEUP_FRAME_MASK0                  0x32
  53      =2  #define MAC_WAKEUP_FRAME_CRC0                   0x36
  54      =2  #define MAC_WAKEUP_FRAME_OFFSET0                0x38
  55      =2  #define MAC_WAKEUP_FRAME_LAST_BYTE0             0x3a
  56      =2  #define MAC_WAKEUP_FRAME_MASK1                  0x40
  57      =2  #define MAC_WAKEUP_FRAME_CRC1                   0x44
  58      =2  #define MAC_WAKEUP_FRAME_OFFSET1                0x46
  59      =2  #define MAC_WAKEUP_FRAME_LAST_BYTE1             0x48
  60      =2  #define MAC_CMD_ABORT                                   0xFF
  61      =2  
  62      =2  // Bit definitions: MAC_RX_CTL_REG //
  63      =2  #define PACKET_TYPE_PROMISCOUS                  BIT0
  64      =2  #define PACKET_TYPE_ALL_MULTI                   BIT1
  65      =2  #define PACKET_TYPE_RCV_CRC_ERROR               BIT2
  66      =2  #define PACKET_TYPE_BROADCAST                   BIT3
  67      =2  #define PACKET_TYPE_MULTICAST                   BIT4
  68      =2  #define PACKET_TYPE_UNICAST_MATCH               BIT5
  69      =2  #define START_OPERATION                                 BIT7
  70      =2  
  71      =2  // Bit definitions: MAC_MEDIUM_STATUS_MODE_REG //
  72      =2  #define MEDIUM_SUPER_MAC                                BIT0
  73      =2  #define MEDIUM_STOP_BACKPRESSURE                BIT1
  74      =2  #define MEDIUM_ENABLE_RECEIVE                   BIT2
  75      =2  #define MEDIUM_CHECK_ONLY_TYPE_PAUSE    BIT3
  76      =2  #define MEDIUM_ENABLE_TX_FLOWCTRL               BIT4
  77      =2  #define MEDIUM_FULL_DUPLEX_MODE                 BIT5
  78      =2  #define MEDIUM_MII_100M_MODE                    BIT6
  79      =2  #define MEDIUM_ENABLE_RX_FLOWCTRL               BIT7
  80      =2  
  81      =2  // Bit definitions: MAC_PHY_CTL_REG //
  82      =2  #define PHY_SELECT_EXTERNAL_PHY                 0
  83      =2  #define PHY_SELECT_EMBEDDED                             BIT0
  84      =2  #define PHY_AUTO_SELECT                                 BIT1
  85      =2  #define PHY_INTERNAL_PHY_OPERA_STATE    BIT2
  86      =2  
  87      =2  // Bit definitions: MAC_WAKEUP_INT_ENABLE_REG //
  88      =2  #define WAKEUP_BY_PRIMARY_LINK_UP               BIT0
  89      =2  #define WAKEUP_BY_SECONDARY_LINK_UP             BIT2
  90      =2  #define WAKEUP_BY_MAGIC_PACKET                  BIT4
  91      =2  #define WAKEUP_BY_EXTER_PIN_TRIG                BIT5
  92      =2  #define WAKEUP_BY_MICROSOFT_FRAME               BIT6
C51 COMPILER V8.06   STOE                                                                  03/10/2026 15:30:55 PAGE 17  

  93      =2  
  94      =2  // Bit definitions: MAC_LINK_CHANGE_INT_ENABLE_REG //
  95      =2  #define PRIMARY_LINK_CHANGE_ENABLE              BIT0
  96      =2  #define SECOND_LINK_CHANGE_ENABLE               BIT2
  97      =2  
  98      =2  // Bit definitions: MAC_WAKEUP_LINK_INT_STATUS_REG //
  99      =2  #define STATUS_PRIMARY_LINK_CHANGE              BIT0
 100      =2  #define STATUS_PRIMARY_IS_LINK_UP               BIT1
 101      =2  #define STATUS_SECOND_LINK_CHANGE               BIT2
 102      =2  #define STATUS_SECOND_IS_LINK_UP                BIT3
 103      =2  #define STATUS_RCV_MAGIC_PKT                    BIT4
 104      =2  #define STATUS_TRIG_EXTER_PIN_TRIG              BIT5
 105      =2  #define STATUS_MICROSOFT_FRAME                  BIT6
 106      =2  
 107      =2  // Bit definitions: WUF_WAKEUP_FRAME_COMMAND, 0x30 //
 108      =2  #define WAKEUP_FRAME_FILTER0_ENABLE             BIT0
 109      =2  #define WAKEUP_FRAME_FILTER0_UNI_ENABLE BIT1
 110      =2  #define WAKEUP_FRAME_FILTER1_ENABLE             BIT2
 111      =2  #define WAKEUP_FRAME_FILTER1_UNI_ENABLE BIT3
 112      =2  #define WAKEUP_FRAME_CASCADE_ENABLE             BIT4
 113      =2  
 114      =2  // wakeup frame Mode //
 115      =2  #define WUF_ONLY_USE_FILTER0                    0
 116      =2  #define WUF_ONLY_USE_FILTER1                    1
 117      =2  #define WUF_ONLY_FILTER0_MACADDR                2
 118      =2  #define WUF_ONLY_FILTER1_MACADDR                3
 119      =2  #define WUF_BOTH_FILTERS                                4
 120      =2  #define WUF_BOTH_FILTERS_MACADDR                6
 121      =2  #define WUF_CASCADE                                             8
 122      =2  #define WUF_CASCADE_MACADDR                             10
 123      =2  
 124      =2  // TYPE DECLARATIONS //
 125      =2  //----------------------------------------------------------------------------------------
 126      =2  typedef struct _MAC_INFORMATION
 127      =2  {
 128      =2  // definition for NetworkType member. //
 129      =2  #define MAC_AUTO_NEGOTIATION                    0
 130      =2  #define MAC_LINK_100M_SPEED                             100
 131      =2  #define MAC_LINK_10M_SPEED                              10
 132      =2  #define MAC_LINK_FULL_DUPLEX                    0x80
 133      =2  #define MAC_FORCE_ENBEDDED_PHY_10_HALF  0x4A
 134      =2  
 135      =2          byte    LinkSpeed;
 136      =2          byte    FullDuplex;
 137      =2        byte  MediumLinkType;   // map to mac register MAC_MEDIUM_STATUS_MODE_REG //
 138      =2          byte    NetworkType;
 139      =2          byte    InterruptMask;
 140      =2  
 141      =2  } MAC_INFO;
 142      =2  
 143      =2  //----------------------------------------------------------------------------------------
 144      =2  typedef struct _MAC_WAKEUP_FRAME
 145      =2  {
 146      =2        byte  Mode;       // see above wakeup frame Mode //
 147      =2        byte  Offset0;    // filter0 offset //
 148      =2        byte  Offset1;    // filter1 offset //
 149      =2        ulong Mask0;      // filter0 mask //
 150      =2        ulong Mask1;      // filter1 mask //
 151      =2        byte* Pframe;     // point to the first byte of wakeup frame (destination address) //
 152      =2          byte    Length;
 153      =2  
 154      =2  } MAC_WUF;
C51 COMPILER V8.06   STOE                                                                  03/10/2026 15:30:55 PAGE 18  

 155      =2  
 156      =2  // GLOBAL VARIABLES //
 157      =2  
 158      =2  // EXPORTED SUBPROGRAM SPECIFICATIONS //
 159      =2  //----------------------------------------------------------------------------------------
 160      =2  void MAC_Init(byte);
 161      =2  void MAC_Start(void);
 162      =2  void mac_StopOperate(void);
 163      =2  void mac_InterruptDisable(void);
 164      =2  byte* MAC_GetMacAddr(void);
 165      =2  void MAC_SetMacAddr(byte*);
 166      =2  void MAC_SetRxFilter(byte);
 167      =2  void  MAC_SetInterruptFlag(void);
 168      =2  byte  MAC_GetInterruptFlag(void);
 169      =2  void  MAC_ProcessInterrupt(void);
 170      =2  byte  MAC_ProcessInterruptExt(void);
 171      =2  void  MAC_MultiFilter(byte*, byte);
 172      =2  
 173      =2  #endif // __MAC_H__ //
 174      =2  
 175      =2  // End of mac.h //
  27      =1  #include "phy.h"
   1      =2  //=============================================================================
   2      =2  //     Copyright (c) 2006       ASIX Electronic Corporation      All rights reserved.
   3      =2  //
   4      =2  //     This is unpublished proprietary source code of ASIX Electronic Corporation
   5      =2  //
   6      =2  //     The copyright notice above does not evidence any actual or intended
   7      =2  //     publication of such source code.
   8      =2  //=============================================================================
   9      =2  // Module Name:phy.h
  10      =2  // Purpose:
  11      =2  // Author:
  12      =2  // Date:
  13      =2  // Notes:
  14      =2  // $Log: phy.h,v $
  15      =2  // Revision 1.1.1.1  2006/06/20 05:50:28  borbin
  16      =2  // no message
  17      =2  //
  18      =2  //=============================================================================
  19      =2  
  20      =2  #ifndef __PHY_H__
  21      =2  #define __PHY_H__
  22      =2  
  23      =2  
  24      =2  // INCLUDE FILE DECLARATIONS //
  25      =2  #include "types.h"
   1      =3  //----------------------------------------------------------------------------------------
   2      =3  //     Copyright (c) 2005       Simtek, Incorporated      All rights reserved.
   3      =3  //
   4      =3  //     This is unpublished proprietary source code of Simtek, Inc
   5      =3  //
   6      =3  //     The copyright notice above does not evidence any actual or intended
   7      =3  //     publication of such source code.
   8      =3  //----------------------------------------------------------------------------------------
   9      =3  // Module Name : types.h
  10      =3  // Purpose     : Definition of type.
  11      =3  // Author      : Robin Lee
  12      =3  // Date        : 2005-12-28
  13      =3  // Notes       : None.
  14      =3  // $Log: types.h,v $
  15      =3  //----------------------------------------------------------------------------------------
C51 COMPILER V8.06   STOE                                                                  03/10/2026 15:30:55 PAGE 19  

  16      =3  // Revision 1.2  2006/05/18 05:02:30  Louis
  17      =3  // no message
  18      =3  //----------------------------------------------------------------------------------------
  19      =3  // Revision 1.1  2006/04/07 11:36:17  robin6633
  20      =3  // no message
  21      =3  //----------------------------------------------------------------------------------------
  22      =3  
  23      =3  #ifndef TYPES_H
           =3 #define TYPES_H
           =3 
           =3 typedef unsigned short int          bool;                                                 // boolean
           =3 typedef unsigned char               byte;                                                 //  8-bit unsign
             -ed
           =3 typedef unsigned short int          uint;                                                 // 16-bit unsign
             -ed
           =3 typedef short int                   sint;                                                 // 16-bit signed
           =3 typedef unsigned long               ulong;                                                // 32-bit unsign
             -ed
           =3 typedef unsigned short int          word;                                                 // 16-bit unsign
             -ed
           =3 
           =3 #ifndef NULL
           =3   #define NULL ((void *) 0L)
           =3 #endif
           =3 
           =3 #define TRUE                  1
           =3 #define FALSE                 0
           =3 #define ON                    1
           =3 #define OFF                   0
           =3 #define Client                1
           =3 #define Server                0
           =3 
           =3 // Bit Definitions for Bitwise Operation //
           =3 #define BIT0            0x01
           =3 #define BIT1            0x02
           =3 #define BIT2            0x04
           =3 #define BIT3            0x08
           =3 #define BIT4            0x10
           =3 #define BIT5            0x20
           =3 #define BIT6            0x40
           =3 #define BIT7            0x80
           =3 #define BIT8            0x0100
           =3 #define BIT9            0x0200
           =3 #define BIT10           0x0400
           =3 #define BIT11           0x0800
           =3 #define BIT12           0x1000
           =3 #define BIT13           0x2000
           =3 #define BIT14           0x4000
           =3 #define BIT15           0x8000
           =3 #define BIT16           0x00010000
           =3 #define BIT17           0x00020000
           =3 #define BIT18           0x00040000
           =3 #define BIT19           0x00080000
           =3 #define BIT20           0x00100000
           =3 #define BIT21           0x00200000
           =3 #define BIT22           0x00400000
           =3 #define BIT23           0x00800000
           =3 #define BIT24           0x01000000
           =3 #define BIT25           0x02000000
           =3 #define BIT26           0x04000000
           =3 #define BIT27           0x08000000
           =3 #define BIT28           0x10000000
C51 COMPILER V8.06   STOE                                                                  03/10/2026 15:30:55 PAGE 20  

           =3 #define BIT29           0x20000000
           =3 #define BIT30           0x40000000
           =3 #define BIT31           0x80000000
           =3 
           =3 #define LOW_BYTE(dat)   (byte) (dat & 0x00FF)
           =3 #define HIGH_BYTE(dat)  (byte)((dat & 0xFF00) >> 8)
           =3 
           =3 #define U32BYTE0(dat)   (byte) (dat  & 0x000000FF)
           =3 #define U32BYTE1(dat)   (byte)((dat  & 0x0000FF00) >> 8)
           =3 #define U32BYTE2(dat)   (byte)((dat  & 0x00FF0000) >> 16)
           =3 #define U32BYTE3(dat)   (byte)((dat  & 0xFF000000) >> 24)
           =3  
           =3 // Keil compiler user define //
           =3 #define     KEIL_CPL
           =3 
           =3 #ifdef KEIL_CPL
           =3  #define XDATA    xdata
           =3  #define IDATA    idata
           =3  #define BDATA    bdata
           =3  #define CODE     code
           =3  #define FAR      far
           =3 #else
           =3  #define XDATA
           =3  #define IDATA
           =3  #define BDATA
           =3  #define CODE
           =3  #define FAR
           =3 #endif
           =3 
           =3 // Serial interface command direction //
           =3 #define     SI_WR                   BIT0
           =3 #define     SI_RD                   BIT1
           =3 
           =3 #define     FLASH_WR_ENB            (PCON |= PWE_)
           =3 #define     FLASH_WR_DISB           (PCON &= ~PWE_)
           =3 
           =3 #endif  // end of TYPES_H //
  26      =2  
  27      =2  // internal phy id address //
  28      =2  #define PHY_ADDRESS                                     0x10
  29      =2  #define PHY_INTERNAL                            0
  30      =2  #define PHY_EXTERNAL                            1
  31      =2  
  32      =2  // network type //
  33      =2  #define AUTO_NEGOTIATION                        0
  34      =2  #define FIXED_100_FULL                          1
  35      =2  #define FIXED_100_HALF                          2
  36      =2  #define FIXED_10_FULL                           3
  37      =2  #define FIXED_10_HALF                           4
  38      =2  #define FORCE_EMBEDDED_PHY_10_HALF      5
  39      =2  
  40      =2  // NAMING CONSTANT DECLARATIONS //
  41      =2  // SFR 0xBE definitions //
  42      =2  #define PHY_READ_REG                            BIT7
  43      =2  #define PHY_ACCESS_GO                           BIT6
  44      =2  #define PHY_CMD_ABORT                           0xFF
  45      =2  
  46      =2  // MII register definitions //
  47      =2  #define MII_PHY_CONTROL                         0x00    // control reg
  48      =2  #define MII_PHY_STATUS                          0x01    // status reg
  49      =2  #define MII_PHY_OUI                                     0x02    // most of the OUI bits
  50      =2  #define MII_PHY_MODEL                           0x03    // model/rev bits, and rest of OUI
C51 COMPILER V8.06   STOE                                                                  03/10/2026 15:30:55 PAGE 21  

  51      =2  #define MII_PHY_ANAR                            0x04    // AN advertisement reg
  52      =2  #define MII_PHY_ANLPAR                          0x05    // AN Link Partner
  53      =2  #define MII_PHY_ANER                            0x06    // AN expansion reg
  54      =2  
  55      =2  // Bit definitions: MII Control //
  56      =2  #define CONTROL_RESET                           0x8000  // reset bit in control reg
  57      =2  #define CONTROL_LOOPBACK                        0x4000  // loopback bit in control reg
  58      =2  #define CONTROL_10MB                            0x0000  // 10 Mbit
  59      =2  #define CONTROL_100MB                           0x2000  // 100Mbit
  60      =2  #define CONTROL_ENABLE_AUTO                     0x1000  // autonegotiate enable
  61      =2  #define CONTROL_POWER_DOWN                      0x0800
  62      =2  #define CONTROL_ISOLATE                         0x0400  // islolate bit
  63      =2  #define CONTROL_START_AUTO                      0x0200  // restart autonegotiate
  64      =2  #define CONTROL_FULL_DUPLEX                     0x0100
  65      =2  
  66      =2  // Bit definitions: Auto-Negotiation Advertisement //
  67      =2  #define ANAR_PAUSE                                      0x0400  // support pause packets
  68      =2  #define ANAR_100T4                                      0x0200  // support 100BT4
  69      =2  #define ANAR_100TXFD                            0x0100  // support 100BTX full duplex
  70      =2  #define ANAR_100TX                                      0x0080  // support 100BTX half duplex
  71      =2  #define ANAR_10TFD                                      0x0040  // support 10BT full duplex
  72      =2  #define ANAR_10T                                        0x0020  // support 10BT half duplex
  73      =2  #define ANAR_SELECTOR_FIELD                     0x001F  // selector field.
  74      =2  #define ANAR_SELECTOR_8023                      0x0001
  75      =2  
  76      =2  // Bit definitions: Auto-Negotiation Link Partner Ability //
  77      =2  #define ANLPAR_PAUSE                            0x0400  // support pause packets
  78      =2  #define ANLPAR_100T4                            0x0200  // support 100BT4
  79      =2  #define ANLPAR_100TXFD                          0x0100  // support 100BTX full duplex
  80      =2  #define ANLPAR_100TX                            0x0080  // support 100BTX half duplex
  81      =2  #define ANLPAR_10TFD                            0x0040  // support 10BT full duplex
  82      =2  #define ANLPAR_10T                                      0x0020  // support 10BT half duplex
  83      =2  
  84      =2  // TYPE DECLARATIONS //
  85      =2  //---------------------------------------------------------------
  86      =2  typedef struct _PHY_INFORMATION
  87      =2  {
  88      =2          byte    PhyAddr;
  89      =2          byte    PhyType;
  90      =2  
  91      =2  } PHY_INFO;
  92      =2  
  93      =2  // EXPORTED SUBPROGRAM SPECIFICATIONS //
  94      =2  //---------------------------------------------------------------
  95      =2  void PHY_Init(byte);
  96      =2  uint PHY_CheckMediaType(void);
  97      =2  void PHY_PowerUp(void);
  98      =2  void PHY_WatchDog(void);
  99      =2  void phy_WriteReg(byte regaddr, uint value);
 100      =2  
 101      =2  #endif // End of __PHY_H__ //
 102      =2  // End of phy.h //
  28      =1  
  29      =1  
  30      =1  // NAMING CONSTANT DECLARATIONS //
  31      =1  #define MAX_ETHERNET_LEN                1514
  32      =1  #define MAC_ADDRESS_LEN                 6
  33      =1  #define ETH_HEADER_LEN                  14
  34      =1  #define VLAN_HEADER_LEN                 4
  35      =1  #define SNAP_LEN                                8
  36      =1  
  37      =1  #define MAX_FRAME_SIZE                  (MAX_ETHERNET_LEN + VLAN_HEADER_LEN)
C51 COMPILER V8.06   STOE                                                                  03/10/2026 15:30:55 PAGE 22  

  38      =1  
  39      =1  #define PAGE_SIZE                               256
  40      =1  
  41      =1  // STOE header //
  42      =1  #define MAC_TX_RX_HEADER                6
  43      =1  
  44      =1  // calculate BDP start address //
  45      =1  #define STOE_SOCKET_BUFFER_SIZE ((PAGES_OF_XMIT + PAGES_OF_RCV + 1) * PAGE_SIZE)
  46      =1  #define DEFAULT_STACK_BOUNDARY  0x8000  // 32 K //
  47      =1  #define STOE_BDP_START_ADDR             (DEFAULT_STACK_BOUNDARY - STOE_SOCKET_BUFFER_SIZE)
  48      =1  #define STOE_RCV_BUF_SIZE               (PAGES_OF_RCV * PAGE_SIZE)
  49      =1  #define STOE_XMIT_BUF_SIZE              (PAGES_OF_XMIT * PAGE_SIZE)
  50      =1  
  51      =1  // STOE register definitions //
  52      =1  #define STOE_L2_CTL_REG                 0x00
  53      =1  #define STOE_RX_VLAN_TAG_REG            0x02
  54      =1  #define STOE_TX_VLAN_TAG_REG            0x04
  55      =1  #define STOE_ARP_CMD_REG                0x06
  56      =1  #define STOE_ARP_ADDR_REG               0x07
  57      =1  #define STOE_ARP_DATA_REG               0x08
  58      =1  #define STOE_ARP_TIMEOUT_REG            0x0E
  59      =1  #define STOE_IP_ADDR_REG                0x10
  60      =1  #define STOE_SUBNET_MASK_REG            0x14
  61      =1  #define STOE_GATEWAY_IP_REG             0x18
  62      =1  #define STOE_CHKSUM_STATUS_REG  0x1C
  63      =1  #define STOE_L4_CTL_REG                 0x20
  64      =1  #define STOE_L4_CMD_REG                 0x21
  65      =1  #define STOE_L4_BDP_PNT_REG             0x22
  66      =1  #define STOE_L4_DMA_GAP_REG             0x24
  67      =1  #define STOE_INT_STATUS_REG             0x30
  68      =1  #define STOE_INT_MASK_REG               0x31
  69      =1  
  70      =1  // Bit definitions: STOE_L2_CTL_REG      //
  71      =1  #define RX_VLAN_ENABLE                  BIT0
  72      =1  #define RX_TRANSPARENT                  BIT1
  73      =1  #define RX_START_OPERA                  BIT3
  74      =1  #define TX_VLAN_ENABLE                  BIT4
  75      =1  #define TX_TRANSPARENT                  BIT5
  76      =1  #define TX_SNAP_ENABLE                  BIT6
  77      =1  #define TX_START_OPERA                  BIT7
  78      =1  
  79      =1  // Bit definitions: STOE_ARP_CMD_REG //
  80      =1  #define ARP_CACHE_CMD_READ              BIT0
  81      =1  #define ARP_CACHE_CMD_GO                BIT1
  82      =1  
  83      =1  // Bit definitions: STOE_L4_CTL_REG      //
  84      =1  #define DROP_CHKSUMERR_PKT              BIT0
  85      =1  #define ENABLE_XMIT_CHKSUM              BIT1
  86      =1  #define ENABLE_RCV_CROSS                BIT2
  87      =1  #define ENABLE_XMIT_CROSS               BIT3 
  88      =1  
  89      =1  // Bit definitions: STOE_L4_CMD_REG      //
  90      =1  #define RESUME_PKT_RCV                  BIT0
  91      =1  #define XMIT_PACKET                     BIT4
  92      =1  
  93      =1  // Bit definitions: STOE_STATUS_REG      //
  94      =1  // Bit definitions: STOE_INT_MASK_REG //
  95      =1  #define ARP_HASH_COLLISION              BIT0
  96      =1  #define RCV_PACKET                      BIT1
  97      =1  #define RCV_BUF_RING_FULL               BIT2
  98      =1  #define ARP_CACHE_NOT_FIND              BIT4
  99      =1  #define XMIT_EMPTY_BUF                  BIT5
C51 COMPILER V8.06   STOE                                                                  03/10/2026 15:30:55 PAGE 23  

 100      =1  #define XMIT_COMPLETE                   BIT6
 101      =1  #define STOE_DEFAULT_INT_MASK   (RCV_BUF_RING_FULL | RCV_PACKET)
 102      =1  
 103      =1  // TYPE DECLARATIONS //
 104      =1  //---------------------------------------------------------------
 105      =1  typedef struct _LOCAL_STATION
 106      =1  {
 107      =1          // MAC address //
 108      =1          byte    PermStaAddr[MAC_ADDRESS_LEN];
 109      =1          byte    CurrStaAddr[MAC_ADDRESS_LEN];
 110      =1  
 111      =1          // IP address //
 112      =1          ulong   StationIP;
 113      =1          ulong   SubnetMask;
 114      =1          ulong   Gateway;
 115      =1          ulong   DefaultIP;
 116      =1          ulong   DefaultMask;
 117      =1          ulong   DefaultGateway;
 118      =1  
 119      =1  } LOCAL_STATION;
 120      =1  
 121      =1  //---------------------------------------------------------------
 122      =1  typedef struct _PACKET_INFORMATION
 123      =1  {
 124      =1          byte XDATA*     PBuf;
 125      =1          byte XDATA*     PIpHeader;
 126      =1          byte XDATA*     PTUIHeader;     // TCP Header, Udp Header, or ICMP IGMP Header //
 127      =1          byte XDATA*     PData;
 128      =1  
 129      =1          uint            TotalLen;
 130      =1          uint            IpTotalLen;
 131      =1          uint            TUITotalLen;
 132      =1          uint            DataLen;
 133      =1          byte            Protocol;
 134      =1          byte            IpHeaderLen;
 135      =1          byte            TcpHeaderLen;
 136      =1          byte            SocketId;
 137      =1          byte            Pages;
 138      =1  
 139      =1  } PACKET_INFORMATION;
 140      =1  
 141      =1  //---------------------------------------------------------------
 142      =1  typedef struct _BUF_DESC_PAGE
 143      =1  {
 144      =1  #define RX_DESCRIPTOR_SIZE                      128
 145      =1  #define RX_DESCRIPTOR_HEADER_SIZE       12
 146      =1  #define RX_RESERVED_BUFFER_SIZE         (RX_DESCRIPTOR_SIZE - RX_DESCRIPTOR_HEADER_SIZE -       \
 147      =1                                                                          sizeof (LOCAL_STATION) - sizeof (PHY_INFO) -            \
 148      =1                                                                          sizeof (MAC_INFO))
 149      =1  
 150      =1          // hardware RX descriptor header //
 151      =1          byte    BDP_ID;
 152      =1          byte    Pad0;
 153      =1          uint    RSPP;
 154      =1          uint    REPP;
 155      =1          uint    RHPR;
 156      =1          uint    RTPR;
 157      =1          byte    RFP;
 158      =1          byte    Pad1;
 159      =1  
 160      =1          LOCAL_STATION   NetStation;
 161      =1          PHY_INFO                PhyInfo;
C51 COMPILER V8.06   STOE                                                                  03/10/2026 15:30:55 PAGE 24  

 162      =1          MAC_INFO                MacInfo;
 163      =1  
 164      =1          byte    RcvReserved[RX_RESERVED_BUFFER_SIZE];
 165      =1  
 166      =1          // hardware TX descriptor header //
 167      =1          uint    TSPP;
 168      =1          uint    TEPP;
 169      =1          uint    THPR;
 170      =1          uint    TTPR;
 171      =1          byte    TFP;
 172      =1          byte    Pad2;
 173      =1  
 174      =1          uint    VSPP;
 175      =1  
 176      =1          byte XDATA*     RcvStartAddr;
 177      =1          byte XDATA*     RcvEndAddr;
 178      =1          byte XDATA*     XmtStartAddr;
 179      =1          byte XDATA*     XmtEndAddr;
 180      =1  
 181      =1          PACKET_INFORMATION      STOE_TxInform;
 182      =1          PACKET_INFORMATION      STOE_RxInform;
 183      =1  
 184      =1  } BUF_DESC_PAGE;
 185      =1  
 186      =1  //---------------------------------------------------------------
 187      =1  typedef struct _STOE_FRAME_HEADER
 188      =1  {
 189      =1          uint    NPR;
 190      =1          uint    Length;
 191      =1          byte    Protocol;
 192      =1          byte    DataOffset;
 193      =1          byte    Packet;
 194      =1  
 195      =1  } STOE_FRAME_HEADER;
 196      =1  
 197      =1  // GLOBAL VARIABLES //
 198      =1  extern LOCAL_STATION XDATA*     PNetStation;
 199      =1  extern BUF_DESC_PAGE XDATA* PBDP;
 200      =1  extern void (*STOE_RcvCallback)(byte XDATA*, uint, byte);
 201      =1  
 202      =1  // EXPORTED SUBPROGRAM SPECIFICATIONS //
 203      =1  //---------------------------------------------------------------
 204      =1  void STOE_Init(byte);
 205      =1  void STOE_Start(void);
 206      =1  void stoe_StopOperate(void);
 207      =1  
 208      =1  // MACRO DECLARATIONS //
 209      =1  #define STOE_GetIPAddr()                (PNetStation->StationIP)
 210      =1  #define STOE_GetSubnetMask()    (PNetStation->SubnetMask)
 211      =1  #define STOE_GetGateway()               (PNetStation->Gateway)
 212      =1  
 213      =1  void STOE_SetIPAddr(ulong);
 214      =1  void STOE_SetSubnetMask(ulong);
 215      =1  void STOE_SetGateway(ulong);
 216      =1  void STOE_WaitHwReleaseRcvBuf(void);
 217      =1  void STOE_ProcessInterrupt(void);
 218      =1  void STOE_Send(byte XDATA*, uint, byte);
 219      =1  byte XDATA* STOE_AssignSendBuf(uint);
 220      =1  byte XDATA* STOE_CopyCode2TPBR(byte XDATA*, byte*, uint);
 221      =1  byte STOE_CHECK_MAC(ulong *ip_addr);
 222      =1  
 223      =1  #endif // End of __STOE_H__ //
C51 COMPILER V8.06   STOE                                                                  03/10/2026 15:30:55 PAGE 25  

 224      =1  // End of stoe.h //
  23          #include "dma.h"
   1      =1  /*
   2      =1   ******************************************************************************
   3      =1   *     Copyright (c) 2006       ASIX Electronic Corporation      All rights reserved.
   4      =1   *
   5      =1   *     This is unpublished proprietary source code of ASIX Electronic Corporation
   6      =1   *
   7      =1   *     The copyright notice above does not evidence any actual or intended
   8      =1   *     publication of such source code.
   9      =1   ******************************************************************************
  10      =1   */
  11      =1  /*=============================================================================
  12      =1   * Module Name:dma.h
  13      =1   * Purpose:
  14      =1   * Author:
  15      =1   * Date:
  16      =1   * Notes:
  17      =1   * $Log: dma.h,v $
  18      =1   * Revision 1.1  2006/05/12 14:24:19  robin6633
  19      =1   * no message
  20      =1   *
  21      =1   * Revision 1.1.1.1  2006/02/23 00:55:10  borbin
  22      =1   * no message
  23      =1   *
  24      =1   *=============================================================================
  25      =1   */
  26      =1  
  27      =1  #ifndef __DMA_H__
  28      =1  #define __DMA_H__
  29      =1  
  30      =1  
  31      =1  /* INCLUDE FILE DECLARATIONS */
  32      =1  #include "types.h"
   1      =2  //----------------------------------------------------------------------------------------
   2      =2  //     Copyright (c) 2005       Simtek, Incorporated      All rights reserved.
   3      =2  //
   4      =2  //     This is unpublished proprietary source code of Simtek, Inc
   5      =2  //
   6      =2  //     The copyright notice above does not evidence any actual or intended
   7      =2  //     publication of such source code.
   8      =2  //----------------------------------------------------------------------------------------
   9      =2  // Module Name : types.h
  10      =2  // Purpose     : Definition of type.
  11      =2  // Author      : Robin Lee
  12      =2  // Date        : 2005-12-28
  13      =2  // Notes       : None.
  14      =2  // $Log: types.h,v $
  15      =2  //----------------------------------------------------------------------------------------
  16      =2  // Revision 1.2  2006/05/18 05:02:30  Louis
  17      =2  // no message
  18      =2  //----------------------------------------------------------------------------------------
  19      =2  // Revision 1.1  2006/04/07 11:36:17  robin6633
  20      =2  // no message
  21      =2  //----------------------------------------------------------------------------------------
  22      =2  
  23      =2  #ifndef TYPES_H
           =2 #define TYPES_H
           =2 
           =2 typedef unsigned short int          bool;                                                 // boolean
           =2 typedef unsigned char               byte;                                                 //  8-bit unsign
             -ed
C51 COMPILER V8.06   STOE                                                                  03/10/2026 15:30:55 PAGE 26  

           =2 typedef unsigned short int          uint;                                                 // 16-bit unsign
             -ed
           =2 typedef short int                   sint;                                                 // 16-bit signed
           =2 typedef unsigned long               ulong;                                                // 32-bit unsign
             -ed
           =2 typedef unsigned short int          word;                                                 // 16-bit unsign
             -ed
           =2 
           =2 #ifndef NULL
           =2   #define NULL ((void *) 0L)
           =2 #endif
           =2 
           =2 #define TRUE                  1
           =2 #define FALSE                 0
           =2 #define ON                    1
           =2 #define OFF                   0
           =2 #define Client                1
           =2 #define Server                0
           =2 
           =2 // Bit Definitions for Bitwise Operation //
           =2 #define BIT0            0x01
           =2 #define BIT1            0x02
           =2 #define BIT2            0x04
           =2 #define BIT3            0x08
           =2 #define BIT4            0x10
           =2 #define BIT5            0x20
           =2 #define BIT6            0x40
           =2 #define BIT7            0x80
           =2 #define BIT8            0x0100
           =2 #define BIT9            0x0200
           =2 #define BIT10           0x0400
           =2 #define BIT11           0x0800
           =2 #define BIT12           0x1000
           =2 #define BIT13           0x2000
           =2 #define BIT14           0x4000
           =2 #define BIT15           0x8000
           =2 #define BIT16           0x00010000
           =2 #define BIT17           0x00020000
           =2 #define BIT18           0x00040000
           =2 #define BIT19           0x00080000
           =2 #define BIT20           0x00100000
           =2 #define BIT21           0x00200000
           =2 #define BIT22           0x00400000
           =2 #define BIT23           0x00800000
           =2 #define BIT24           0x01000000
           =2 #define BIT25           0x02000000
           =2 #define BIT26           0x04000000
           =2 #define BIT27           0x08000000
           =2 #define BIT28           0x10000000
           =2 #define BIT29           0x20000000
           =2 #define BIT30           0x40000000
           =2 #define BIT31           0x80000000
           =2 
           =2 #define LOW_BYTE(dat)   (byte) (dat & 0x00FF)
           =2 #define HIGH_BYTE(dat)  (byte)((dat & 0xFF00) >> 8)
           =2 
           =2 #define U32BYTE0(dat)   (byte) (dat  & 0x000000FF)
           =2 #define U32BYTE1(dat)   (byte)((dat  & 0x0000FF00) >> 8)
           =2 #define U32BYTE2(dat)   (byte)((dat  & 0x00FF0000) >> 16)
           =2 #define U32BYTE3(dat)   (byte)((dat  & 0xFF000000) >> 24)
           =2  
           =2 // Keil compiler user define //
C51 COMPILER V8.06   STOE                                                                  03/10/2026 15:30:55 PAGE 27  

           =2 #define     KEIL_CPL
           =2 
           =2 #ifdef KEIL_CPL
           =2  #define XDATA    xdata
           =2  #define IDATA    idata
           =2  #define BDATA    bdata
           =2  #define CODE     code
           =2  #define FAR      far
           =2 #else
           =2  #define XDATA
           =2  #define IDATA
           =2  #define BDATA
           =2  #define CODE
           =2  #define FAR
           =2 #endif
           =2 
           =2 // Serial interface command direction //
           =2 #define     SI_WR                   BIT0
           =2 #define     SI_RD                   BIT1
           =2 
           =2 #define     FLASH_WR_ENB            (PCON |= PWE_)
           =2 #define     FLASH_WR_DISB           (PCON &= ~PWE_)
           =2 
           =2 #endif  // end of TYPES_H //
  33      =1  #include "dma_cfg.h"
   1      =2  //
   2      =2  //=============================================================================
   3      =2  //     Copyright (c) 2006       ASIX Electronic Corporation      All rights reserved.
   4      =2  //
   5      =2  //     This is unpublished proprietary source code of ASIX Electronic Corporation
   6      =2  //
   7      =2  //     The copyright notice above does not evidence any actual or intended
   8      =2  //     publication of such source code.
   9      =2  //=============================================================================
  10      =2  //
  11      =2  //=============================================================================
  12      =2  // Module Name:dma_cfg.h
  13      =2  // Purpose:
  14      =2  // Author:
  15      =2  // Date:
  16      =2  // Notes:
  17      =2  // $Log: dma_cfg.h,v $
  18      =2  // Revision 1.1  2006/05/12 14:24:19  robin6633
  19      =2  // no message
  20      =2  //
  21      =2  // Revision 1.1.1.1  2006/02/23 00:55:10  borbin
  22      =2  // no message
  23      =2  //
  24      =2  //=============================================================================
  25      =2  //
  26      =2  
  27      =2  #ifndef __DMA_CFG_H__
  28      =2  #define __DMA_CFG_H__
  29      =2  
  30      =2  
  31      =2  //-------------------------------------------------------------//
  32      =2  #define DMA_GAP                                         2       // 2 * 64 cycle, don't set '0' //
  33      =2  
  34      =2  //-------------------------------------------------------------//
  35      =2  // NAMING CONSTANT DECLARATIONS //
  36      =2  #define DMA_COPY_LESS_THAN_64K          0       // scope that dma copy, small than 64k //
  37      =2  #define DMA_COPY_LARGE_THAN_64K         1       // scope that dma copy, large than 64k //
C51 COMPILER V8.06   STOE                                                                  03/10/2026 15:30:55 PAGE 28  

  38      =2  
  39      =2  #define DMA_SRAM_RANGE                  (DMA_COPY_LARGE_THAN_64K)
  40      =2                                                                                  // if set DMA_COPY_LARGE_THAN_64K, driver
  41      =2                                                                                  // include DMA_Grant() function.
  42      =2                                                                                  // Call this function, the source and
  43      =2                                                                                  // destination address may be in ether XDATA
  44      =2                                                                                  // or FAR memory.
  45      =2  //-------------------------------------------------------------//
  46      =2  // NAMING CONSTANT DECLARATIONS //
  47      =2  #define DMA_NO                                          0
  48      =2  #define DMA_YES                                         1
  49      =2  
  50      =2  #define DMA_INCLUDE_ETHERNET_MODULE     (DMA_YES)
  51      =2  //-------------------------------------------------------------//
  52      =2  
  53      =2  
  54      =2  #endif // End of __DMA_CFG_H__ //
  55      =2  
  56      =2  
  57      =2  // End of dma_cfg.h //
  34      =1  
  35      =1  /* NAMING CONSTANT DECLARATIONS */
  36      =1  /* SFR 0x94 definitions*/
  37      =1  #define DMA_COMPLETE                    BIT0
  38      =1  
  39      =1  /* DMA register definitions */
  40      =1  #define SW_DMA_CMD_REG                  0x00
  41      =1  #define SW_DMA_SOUR_ADDR_REG    0x02
  42      =1  #define SW_DMA_TARGET_ADDR_REG  0x06
  43      =1  #define SW_DMA_BYTE_COUNT_REG   0x0A
  44      =1  
  45      =1  /* Bit definitions: SW_DMA_CMD_REG */
  46      =1  #define DMA_CMD_GO                              BIT0
  47      =1  #define DMA_FORCE_STOP                  BIT1
  48      =1  #define DMA_ERROR_BIT                   BIT2
  49      =1  #define DMA_ADDR_IN_RPBR                BIT4
  50      =1  #define DMA_ADDR_IN_TPBR                BIT5
  51      =1  #define DMA_COMPLETE_INT_ENABLE BIT7
  52      =1  
  53      =1  /* for software definition */
  54      =1  #define DMA_NORMAL                              0
  55      =1  #define DMA_FROM_RPBR                   BIT4
  56      =1  #define DMA_TO_TPBR                             BIT5
  57      =1  
  58      =1  /* EXPORTED SUBPROGRAM SPECIFICATIONS */
  59      =1  /*-------------------------------------------------------------*/
  60      =1  void DMA_ReadReg(byte, byte XDATA*, byte);
  61      =1  void DMA_WriteReg(byte, byte XDATA*, byte);
  62      =1  void DMA_Init(void);
  63      =1  void DMA_Start(void);
  64      =1  byte XDATA* DMA_GrantXdata(byte XDATA*, byte XDATA*, uint);
  65      =1  #if (DMA_SRAM_RANGE == DMA_COPY_LARGE_THAN_64K)
  66      =1  byte* DMA_Grant(byte*, byte*, uint);
  67      =1  #endif
  68      =1  
  69      =1  
  70      =1  #endif /* End of __DMA_H__ */
  71      =1  
  72      =1  
  73      =1  /* End of dma.h */
  24          #include "delay.h"
   1      =1  /*
C51 COMPILER V8.06   STOE                                                                  03/10/2026 15:30:55 PAGE 29  

   2      =1   ******************************************************************************
   3      =1   *     Copyright (c) 2006       ASIX Electronic Corporation      All rights reserved.
   4      =1   *
   5      =1   *     This is unpublished proprietary source code of ASIX Electronic Corporation
   6      =1   *
   7      =1   *     The copyright notice above does not evidence any actual or intended
   8      =1   *     publication of such source code.
   9      =1   ******************************************************************************
  10      =1   */
  11      =1  /*=============================================================================
  12      =1   * Module Name:delay.h
  13      =1   * Purpose:
  14      =1   * Author:
  15      =1   * Date:
  16      =1   * Notes:
  17      =1   * $Log: delay.h,v $
  18      =1   * Revision 1.1.1.1  2006/06/20 05:50:28  borbin
  19      =1   * no message
  20      =1   *
  21      =1   * Revision 1.1.1.1  2006/02/23 00:55:10  borbin
  22      =1   * no message
  23      =1   *
  24      =1   *=============================================================================
  25      =1   */
  26      =1  
  27      =1  #ifndef __DELAY_H__
  28      =1  #define __DELAY_H__
  29      =1  
  30      =1  /* INCLUDE FILE DECLARATIONS */
  31      =1  #include "types.h"
   1      =2  //----------------------------------------------------------------------------------------
   2      =2  //     Copyright (c) 2005       Simtek, Incorporated      All rights reserved.
   3      =2  //
   4      =2  //     This is unpublished proprietary source code of Simtek, Inc
   5      =2  //
   6      =2  //     The copyright notice above does not evidence any actual or intended
   7      =2  //     publication of such source code.
   8      =2  //----------------------------------------------------------------------------------------
   9      =2  // Module Name : types.h
  10      =2  // Purpose     : Definition of type.
  11      =2  // Author      : Robin Lee
  12      =2  // Date        : 2005-12-28
  13      =2  // Notes       : None.
  14      =2  // $Log: types.h,v $
  15      =2  //----------------------------------------------------------------------------------------
  16      =2  // Revision 1.2  2006/05/18 05:02:30  Louis
  17      =2  // no message
  18      =2  //----------------------------------------------------------------------------------------
  19      =2  // Revision 1.1  2006/04/07 11:36:17  robin6633
  20      =2  // no message
  21      =2  //----------------------------------------------------------------------------------------
  22      =2  
  23      =2  #ifndef TYPES_H
           =2 #define TYPES_H
           =2 
           =2 typedef unsigned short int          bool;                                                 // boolean
           =2 typedef unsigned char               byte;                                                 //  8-bit unsign
             -ed
           =2 typedef unsigned short int          uint;                                                 // 16-bit unsign
             -ed
           =2 typedef short int                   sint;                                                 // 16-bit signed
           =2 typedef unsigned long               ulong;                                                // 32-bit unsign
C51 COMPILER V8.06   STOE                                                                  03/10/2026 15:30:55 PAGE 30  

             -ed
           =2 typedef unsigned short int          word;                                                 // 16-bit unsign
             -ed
           =2 
           =2 #ifndef NULL
           =2   #define NULL ((void *) 0L)
           =2 #endif
           =2 
           =2 #define TRUE                  1
           =2 #define FALSE                 0
           =2 #define ON                    1
           =2 #define OFF                   0
           =2 #define Client                1
           =2 #define Server                0
           =2 
           =2 // Bit Definitions for Bitwise Operation //
           =2 #define BIT0            0x01
           =2 #define BIT1            0x02
           =2 #define BIT2            0x04
           =2 #define BIT3            0x08
           =2 #define BIT4            0x10
           =2 #define BIT5            0x20
           =2 #define BIT6            0x40
           =2 #define BIT7            0x80
           =2 #define BIT8            0x0100
           =2 #define BIT9            0x0200
           =2 #define BIT10           0x0400
           =2 #define BIT11           0x0800
           =2 #define BIT12           0x1000
           =2 #define BIT13           0x2000
           =2 #define BIT14           0x4000
           =2 #define BIT15           0x8000
           =2 #define BIT16           0x00010000
           =2 #define BIT17           0x00020000
           =2 #define BIT18           0x00040000
           =2 #define BIT19           0x00080000
           =2 #define BIT20           0x00100000
           =2 #define BIT21           0x00200000
           =2 #define BIT22           0x00400000
           =2 #define BIT23           0x00800000
           =2 #define BIT24           0x01000000
           =2 #define BIT25           0x02000000
           =2 #define BIT26           0x04000000
           =2 #define BIT27           0x08000000
           =2 #define BIT28           0x10000000
           =2 #define BIT29           0x20000000
           =2 #define BIT30           0x40000000
           =2 #define BIT31           0x80000000
           =2 
           =2 #define LOW_BYTE(dat)   (byte) (dat & 0x00FF)
           =2 #define HIGH_BYTE(dat)  (byte)((dat & 0xFF00) >> 8)
           =2 
           =2 #define U32BYTE0(dat)   (byte) (dat  & 0x000000FF)
           =2 #define U32BYTE1(dat)   (byte)((dat  & 0x0000FF00) >> 8)
           =2 #define U32BYTE2(dat)   (byte)((dat  & 0x00FF0000) >> 16)
           =2 #define U32BYTE3(dat)   (byte)((dat  & 0xFF000000) >> 24)
           =2  
           =2 // Keil compiler user define //
           =2 #define     KEIL_CPL
           =2 
           =2 #ifdef KEIL_CPL
           =2  #define XDATA    xdata
C51 COMPILER V8.06   STOE                                                                  03/10/2026 15:30:55 PAGE 31  

           =2  #define IDATA    idata
           =2  #define BDATA    bdata
           =2  #define CODE     code
           =2  #define FAR      far
           =2 #else
           =2  #define XDATA
           =2  #define IDATA
           =2  #define BDATA
           =2  #define CODE
           =2  #define FAR
           =2 #endif
           =2 
           =2 // Serial interface command direction //
           =2 #define     SI_WR                   BIT0
           =2 #define     SI_RD                   BIT1
           =2 
           =2 #define     FLASH_WR_ENB            (PCON |= PWE_)
           =2 #define     FLASH_WR_DISB           (PCON &= ~PWE_)
           =2 
           =2 #endif  // end of TYPES_H //
  32      =1  
  33      =1  /* NAMING CONSTANT DECLARATIONS */
  34      =1  
  35      =1  /* GLOBAL VARIABLES */
  36      =1  
  37      =1  /* EXPORTED SUBPROGRAM SPECIFICATIONS */
  38      =1  void DELAY_Init(void);
  39      =1  void DELAY_Ms(uint);
  40      =1  void DELAY_Us(uint);
  41      =1  
  42      =1  
  43      =1  #endif /* End of __DELAY_H__ */
  44      =1  
  45      =1  
  46      =1  /* End of timer.h */
  25          #include "interrupt.h"
   1      =1  /*
   2      =1   *********************************************************************************
   3      =1   *     Copyright (c) 2005       ASIX Electronic Corporation      All rights reserved.
   4      =1   *
   5      =1   *     This is unpublished proprietary source code of ASIX Electronic Corporation
   6      =1   *
   7      =1   *     The copyright notice above does not evidence any actual or intended
   8      =1   *     publication of such source code.
   9      =1   *********************************************************************************
  10      =1   */
  11      =1  /*================================================================================
  12      =1   * Module Name : interrupt.h
  13      =1   * Purpose     : A header file belongs to interrupt module.
  14      =1   * Author      : Robin Lee
  15      =1   * Date        : 2005-01-09
  16      =1   * Notes       : None.
  17      =1   * $Log: interrupt.h,v $
  18      =1   * Revision 1.2  2006/05/18 05:02:30  Louis
  19      =1   * no message
  20      =1   *
  21      =1   * Revision 1.2  2006/04/20 01:24:55  robin6633
  22      =1   * 1.Removed the power management interrupt enable/disable.
  23      =1   *
  24      =1   * Revision 1.1  2006/04/07 11:36:17  robin6633
  25      =1   * no message
  26      =1   *
C51 COMPILER V8.06   STOE                                                                  03/10/2026 15:30:55 PAGE 32  

  27      =1   *================================================================================
  28      =1   */
  29      =1  #ifndef INTERRUPT_H
  30      =1  #define INTERRUPT_H
  31      =1  
  32      =1  /* INCLUDE FILE DECLARATIONS */
  33      =1  #include        "interrupt_cfg.h"
   1      =2  //================================================================================
   2      =2  //     Copyright (c) 2005       ASIX Electronic Corporation      All rights reserved.
   3      =2  //
   4      =2  //     This is unpublished proprietary source code of ASIX Electronic Corporation
   5      =2  //
   6      =2  //     The copyright notice above does not evidence any actual or intended
   7      =2  //     publication of such source code.
   8      =2  //================================================================================
   9      =2  //
  10      =2  //================================================================================
  11      =2  // Module Name : interrupt_cfg.h
  12      =2  // Purpose     : Configuration setting of interrupt module.
  13      =2  // Author      : Robin Lee
  14      =2  // Date        : 2006-01-09
  15      =2  // Notes       : None.
  16      =2  // $Log: interrupt_cfg.h,v $
  17      =2  // Revision 1.2  2006/05/18 05:02:30  Louis
  18      =2  // no message
  19      =2  //
  20      =2  // Revision 1.2  2006/04/20 01:25:49  robin6633
  21      =2  // 1.Added the power management ISR enable/disable.
  22      =2  // 2.Added the watchdog ISR enable/disable.
  23      =2  //
  24      =2  // Revision 1.1  2006/04/07 11:36:17  robin6633
  25      =2  // no message
  26      =2  //
  27      =2  //================================================================================
  28      =2  //
  29      =2  #ifndef INTERRUPT_CFG_H
  30      =2  #define INTERRUPT_CFG_H
  31      =2  
  32      =2  // INCLUDE FILE DECLARATIONS //
  33      =2  
  34      =2  // NAMING CONSTANT DECLARATIONS //
  35      =2  //#define  AX_LBI_INT_ENABLE                    0 // 1:enable Local Bus ISR ; 0:disable Local Bus ISR
  36      =2  //#define  AX_ETH_INT_ENABLE                    1 // 1:enable Ethernet ISR ; 0:disable Ethernet ISR
  37      =2  //#define  AX_I2C_INT_ENABLE                    0 // 1:enable I2C ISR ; 0:disable I2C ISR
  38      =2  //#define  AX_SPI_INT_ENABLE                    0 // 1:enable SPI ISR ; 0:disable SPI ISR
  39      =2  //#define  AX_ONEWIRE_INT_ENABLE                0 // 1:enable OneWire ISR ; 0:disable OneWire ISR
  40      =2  //#define  AX_CAN_INT_ENABLE                    0 // 1:enable CAN ISR ; 0:disable CAN ISR
  41      =2  //#define  AX_HSUART_INT_ENABLE                 0 // 1:enable High Speed Uart ISR ; 0:disable High Speed Uart ISR
  42      =2  //#define  BOOTLDR_ISR                          0 // 1:involve the boot loader source code.
  43      =2  //#define  AX_POWER_MANAGEMENT_INT_ENABLE       1 // 1:enable power management wake up  ISR ; 0:disable that
  44      =2  //#define  AX_WATCHDOG_INT_ENB          0 // 1:enable watchdog ISR ; 0:disable watchdog ISR;
  45      =2  
  46      =2  // MACRO DECLARATIONS //
  47      =2  
  48      =2  // TYPE DECLARATIONS //
  49      =2  
  50      =2  // GLOBAL VARIABLES //
  51      =2  extern byte             ax11000WakeupEvent;
  52      =2  
  53      =2  // EXPORTED SUBPROGRAM SPECIFICATIONS //
  54      =2  
  55      =2  #endif // End of INTERRUPT_CFG_H //
C51 COMPILER V8.06   STOE                                                                  03/10/2026 15:30:55 PAGE 33  

  34      =1  
  35      =1  
  36      =1  /* NAMING CONSTANT DECLARATIONS */
  37      =1  #define         ON              1
  38      =1  #define         OFF             0
  39      =1  #define         EXTINT0(val)    {EX0 = val;}
  40      =1  #define         EXTINT1(val)    {EX1 = val;}
  41      =1  #define         EXTINT2(val)    {EINT2 = val;}
  42      =1  #define         EXTINT3(val)    {EINT3 = val;}
  43      =1  #define         EXTINT4(val)    {EINT4 = val;}
  44      =1  #define         EXTINT5(val)    {EINT5 = val;}
  45      =1  #define         EXTINT6(val)    {EINT6 = val;}
  46      =1  
  47      =1  
  48      =1  /* MACRO DECLARATIONS */
  49      =1  
  50      =1  
  51      =1  /* TYPE DECLARATIONS */
  52      =1  
  53      =1  
  54      =1  /* GLOBAL VARIABLES */
  55      =1  
  56      =1  
  57      =1  /* EXPORTED SUBPROGRAM SPECIFICATIONS */
  58      =1  
  59      =1  
  60      =1  #endif /* End of INTERRUPT_H */
  26          
  27          #include "adapter.h"
   1      =1  //----------------------------------------------------------------------------------------
   2      =1  //     Copyright (c) 2006       ASIX Electronic Corporation      All rights reserved.
   3      =1  //
   4      =1  //     This is unpublished proprietary source code of ASIX Electronic Corporation
   5      =1  //
   6      =1  //     The copyright notice above does not evidence any actual or intended
   7      =1  //     publication of such source code.
   8      =1  //----------------------------------------------------------------------------------------
   9      =1  // Module Name:adapter.h
  10      =1  // Purpose:
  11      =1  // Author:
  12      =1  // Date:
  13      =1  // Notes:
  14      =1  // $Log: adapter.h,v $
  15      =1  //----------------------------------------------------------------------------------------
  16      =1  
  17      =1  #ifndef __ADAPTER_H__
  18      =1  #define __ADAPTER_H__
  19      =1  
  20      =1  // INCLUDE FILE DECLARATIONS //
  21      =1  #include "types.h"
   1      =2  //----------------------------------------------------------------------------------------
   2      =2  //     Copyright (c) 2005       Simtek, Incorporated      All rights reserved.
   3      =2  //
   4      =2  //     This is unpublished proprietary source code of Simtek, Inc
   5      =2  //
   6      =2  //     The copyright notice above does not evidence any actual or intended
   7      =2  //     publication of such source code.
   8      =2  //----------------------------------------------------------------------------------------
   9      =2  // Module Name : types.h
  10      =2  // Purpose     : Definition of type.
  11      =2  // Author      : Robin Lee
  12      =2  // Date        : 2005-12-28
C51 COMPILER V8.06   STOE                                                                  03/10/2026 15:30:55 PAGE 34  

  13      =2  // Notes       : None.
  14      =2  // $Log: types.h,v $
  15      =2  //----------------------------------------------------------------------------------------
  16      =2  // Revision 1.2  2006/05/18 05:02:30  Louis
  17      =2  // no message
  18      =2  //----------------------------------------------------------------------------------------
  19      =2  // Revision 1.1  2006/04/07 11:36:17  robin6633
  20      =2  // no message
  21      =2  //----------------------------------------------------------------------------------------
  22      =2  
  23      =2  #ifndef TYPES_H
           =2 #define TYPES_H
           =2 
           =2 typedef unsigned short int          bool;                                                 // boolean
           =2 typedef unsigned char               byte;                                                 //  8-bit unsign
             -ed
           =2 typedef unsigned short int          uint;                                                 // 16-bit unsign
             -ed
           =2 typedef short int                   sint;                                                 // 16-bit signed
           =2 typedef unsigned long               ulong;                                                // 32-bit unsign
             -ed
           =2 typedef unsigned short int          word;                                                 // 16-bit unsign
             -ed
           =2 
           =2 #ifndef NULL
           =2   #define NULL ((void *) 0L)
           =2 #endif
           =2 
           =2 #define TRUE                  1
           =2 #define FALSE                 0
           =2 #define ON                    1
           =2 #define OFF                   0
           =2 #define Client                1
           =2 #define Server                0
           =2 
           =2 // Bit Definitions for Bitwise Operation //
           =2 #define BIT0            0x01
           =2 #define BIT1            0x02
           =2 #define BIT2            0x04
           =2 #define BIT3            0x08
           =2 #define BIT4            0x10
           =2 #define BIT5            0x20
           =2 #define BIT6            0x40
           =2 #define BIT7            0x80
           =2 #define BIT8            0x0100
           =2 #define BIT9            0x0200
           =2 #define BIT10           0x0400
           =2 #define BIT11           0x0800
           =2 #define BIT12           0x1000
           =2 #define BIT13           0x2000
           =2 #define BIT14           0x4000
           =2 #define BIT15           0x8000
           =2 #define BIT16           0x00010000
           =2 #define BIT17           0x00020000
           =2 #define BIT18           0x00040000
           =2 #define BIT19           0x00080000
           =2 #define BIT20           0x00100000
           =2 #define BIT21           0x00200000
           =2 #define BIT22           0x00400000
           =2 #define BIT23           0x00800000
           =2 #define BIT24           0x01000000
           =2 #define BIT25           0x02000000
C51 COMPILER V8.06   STOE                                                                  03/10/2026 15:30:55 PAGE 35  

           =2 #define BIT26           0x04000000
           =2 #define BIT27           0x08000000
           =2 #define BIT28           0x10000000
           =2 #define BIT29           0x20000000
           =2 #define BIT30           0x40000000
           =2 #define BIT31           0x80000000
           =2 
           =2 #define LOW_BYTE(dat)   (byte) (dat & 0x00FF)
           =2 #define HIGH_BYTE(dat)  (byte)((dat & 0xFF00) >> 8)
           =2 
           =2 #define U32BYTE0(dat)   (byte) (dat  & 0x000000FF)
           =2 #define U32BYTE1(dat)   (byte)((dat  & 0x0000FF00) >> 8)
           =2 #define U32BYTE2(dat)   (byte)((dat  & 0x00FF0000) >> 16)
           =2 #define U32BYTE3(dat)   (byte)((dat  & 0xFF000000) >> 24)
           =2  
           =2 // Keil compiler user define //
           =2 #define     KEIL_CPL
           =2 
           =2 #ifdef KEIL_CPL
           =2  #define XDATA    xdata
           =2  #define IDATA    idata
           =2  #define BDATA    bdata
           =2  #define CODE     code
           =2  #define FAR      far
           =2 #else
           =2  #define XDATA
           =2  #define IDATA
           =2  #define BDATA
           =2  #define CODE
           =2  #define FAR
           =2 #endif
           =2 
           =2 // Serial interface command direction //
           =2 #define     SI_WR                   BIT0
           =2 #define     SI_RD                   BIT1
           =2 
           =2 #define     FLASH_WR_ENB            (PCON |= PWE_)
           =2 #define     FLASH_WR_DISB           (PCON &= ~PWE_)
           =2 
           =2 #endif  // end of TYPES_H //
  22      =1  #include "adapter_cfg.h"
   1      =2  /*
   2      =2   ******************************************************************************
   3      =2   *     Copyright (c) 2006       ASIX Electronic Corporation      All rights reserved.
   4      =2   *
   5      =2   *     This is unpublished proprietary source code of ASIX Electronic Corporation
   6      =2   *
   7      =2   *     The copyright notice above does not evidence any actual or intended
   8      =2   *     publication of such source code.
   9      =2   ******************************************************************************
  10      =2   */
  11      =2  /*=============================================================================
  12      =2   * Module Name:adapter_cfg.h
  13      =2   * Purpose:
  14      =2   * Author:
  15      =2   * Date:
  16      =2   * Notes:
  17      =2   * $Log: adapter_cfg.h,v $
  18      =2   *=============================================================================
  19      =2   */
  20      =2  
  21      =2  #ifndef __ADAPTER_CFG_H__
C51 COMPILER V8.06   STOE                                                                  03/10/2026 15:30:55 PAGE 36  

  22      =2  #define __ADAPTER_CFG_H__
  23      =2  
  24      =2  
  25      =2  /*-------------------------------------------------------------*/
  26      =2  /* NAMING CONSTANT DECLARATIONS */
  27      =2  #define ETH_PHY_AUTO_NEGOTIATION        0
  28      =2  #define ETH_PHY_FIXED_100_FULL          1
  29      =2  #define ETH_PHY_FIXED_100_HALF          2
  30      =2  #define ETH_PHY_FIXED_10_FULL           3
  31      =2  #define ETH_PHY_FIXED_10_HALF           4
  32      =2  #define ETH_PHY_FORCE_EMBEDDED_PHY_10_HALF      5       // Force the embedded Ethernet PHY to operate in 10Mbps half-
             -duplex mode.
  33      =2                                                                                                  // The EEPROM address 0x01(Flag) BIT-0 must be set to 1.           
  34      =2  
  35      =2  #define ETH_PHY_SENSE_TYPE              (ETH_PHY_AUTO_NEGOTIATION)
  36      =2  
  37      =2  /*-------------------------------------------------------------*/
  38      =2  
  39      =2  
  40      =2  #endif /* End of __ADAPTER_CFG_H__ */
  41      =2  
  42      =2  
  43      =2  /* End of adapter_cfg.h */
  23      =1  #include "stoe_cfg.h"
   1      =2  //========================================================================================
   2      =2  //     Copyright (c) 2006     ASIX Electronic Corporation      All rights reserved.
   3      =2  //
   4      =2  //     This is unpublished proprietary source code of ASIX Electronic Corporation
   5      =2  //
   6      =2  //     The copyright notice above does not evidence any actual or intended
   7      =2  //     publication of such source code.
   8      =2  //========================================================================================
   9      =2  // Module Name    : stoe_cfg.h
  10      =2  // Purpose        : 
  11      =2  // Author         :
  12      =2  // Date           :
  13      =2  // Notes          :
  14      =2  // $Log           : stoe_cfg.h,v $
  15      =2  //~~~~~~~~~~~~~~~~~~~~~~~~~~~~~~~~~~~~~~~~~~~~~~~~~~~~~~~~~~~~~~~~~~~~~~~~~~~~~~~~~~~~~~~~
  16      =2  // Revision 1.2      2006/07/25 05:32:12  borbin
  17      =2  // no message
  18      =2  //~~~~~~~~~~~~~~~~~~~~~~~~~~~~~~~~~~~~~~~~~~~~~~~~~~~~~~~~~~~~~~~~~~~~~~~~~~~~~~~~~~~~~~~~
  19      =2  // Revision 1.1.1.1  2006/06/20 05:50:28  borbin
  20      =2  // no message
  21      =2  //~~~~~~~~~~~~~~~~~~~~~~~~~~~~~~~~~~~~~~~~~~~~~~~~~~~~~~~~~~~~~~~~~~~~~~~~~~~~~~~~~~~~~~~~
  22      =2  //========================================================================================
  23      =2  //
  24      =2  #ifndef __STOE_CFG_H__
           =2 #define __STOE_CFG_H__
           =2 //          INCLUDE FILE DECLARATIONS                                                     //
           =2 //----------------------------------------------------------------------------------------
           =2 #define PAGES_OF_XMIT                           8                                         // pages. 2k // 
             -//16     // pages, 4k //
           =2 #define PAGES_OF_RCV                            16                                        // pages. 4k // 
             -//24  // pages, 6k //
           =2 //----------------------------------------------------------------------------------------
           =2 #define STOE_ARP_TIMEOUT                        16                                        // hardware arp 
             -table timeout is 128 sec. //
           =2 //----------------------------------------------------------------------------------------
           =2 //          NAMING CONSTANT DECLARATIONS                                                  //
           =2 //----------------------------------------------------------------------------------------
           =2 #define STOE_HW_CHECKSUN_DISABLE                0                                         //    0: disable
C51 COMPILER V8.06   STOE                                                                  03/10/2026 15:30:55 PAGE 37  

             - stoe checksum offload engine //
           =2 #define STOE_HW_CHECKSUN_ENABLE                 1                                         //    1: enable 
             -stoe checksum offload engine. //
           =2 #define STOE_CHECKSUM_OFFLOAD                   (STOE_HW_CHECKSUN_ENABLE)                 //
           =2 //----------------------------------------------------------------------------------------
           =2 #endif                                    //    End of __STOE_CFG_H__         //
  40      =2  // End of stoe_cfg.h //
  24      =1  
  25      =1  // NAMING CONSTANT DECLARATIONS //
  26      =1  #define ETH_STOP_ARP_REQUEST_TO_GATEWAY_AFTER_REPLY                     1
  27      =1  #define ETH_CONTINUE_ARP_REQUEST_TO_GATEWAY_AFTER_REPLY         0
  28      =1  
  29      =1  // GLOBAL VARIABLES //
  30      =1  extern byte ETH_IsPppoe;
  31      =1  extern byte ETH_DoDhcp;
  32      =1  extern byte ETH_PppoeHeaderLen;
  33      =1  extern byte ETH_DhcpArpReply;
  34      =1  #define ETH_GetPppoeFlag() (ETH_IsPppoe)
  35      =1  #define ETH_SetPppoeFlag(a) (ETH_IsPppoe = a)
  36      =1  #define ETH_GetDhcpFlag() (ETH_DoDhcp)
  37      =1  #define ETH_SetDhcpFlag(a) (ETH_DoDhcp = a)
  38      =1  #define ETH_GetPppoeHeaderLen() (ETH_PppoeHeaderLen)
  39      =1  #define ETH_SetPppoeHeaderLen(a) (ETH_PppoeHeaderLen = a)
  40      =1  #define ETH_SetDhcpArpReplyFlag(a) (ETH_DhcpArpReply = a)
  41      =1  #define ETH_CheckDhcpArpReply() (ETH_DhcpArpReply)
  42      =1  
  43      =1  // EXPORTED SUBPROGRAM SPECIFICATIONS //
  44      =1  //-------------------------------------------------------------//
  45      =1  void ETH_Init(void);
  46      =1  void ETH_Start(void);
  47      =1  void ETH_Send(uint);
  48      =1  void ETH_SendPkt(byte XDATA*, uint);
  49      =1  void ETH_SendArpToGateway(bool);
  50      =1  void ETH_SendArpRequest(ulong dstIp);
  51      =1  void ETH_RestartSendArpToGateway(void);
  52      =1  void ETH_SendDhcpArpRequest(void);
  53      =1  #endif // End of __ADAPTER_H__ //
  54      =1  
  55      =1  // End of adapter.h //
  28          
  29          #include <intrins.h>
   1      =1  /*--------------------------------------------------------------------------
   2      =1  INTRINS.H
   3      =1  
   4      =1  Intrinsic functions for C51.
   5      =1  Copyright (c) 1988-2004 Keil Elektronik GmbH and Keil Software, Inc.
   6      =1  All rights reserved.
   7      =1  --------------------------------------------------------------------------*/
   8      =1  
   9      =1  #ifndef __INTRINS_H__
  10      =1  #define __INTRINS_H__
  11      =1  
  12      =1  extern void          _nop_     (void);
  13      =1  extern bit           _testbit_ (bit);
  14      =1  extern unsigned char _cror_    (unsigned char, unsigned char);
  15      =1  extern unsigned int  _iror_    (unsigned int,  unsigned char);
  16      =1  extern unsigned long _lror_    (unsigned long, unsigned char);
  17      =1  extern unsigned char _crol_    (unsigned char, unsigned char);
  18      =1  extern unsigned int  _irol_    (unsigned int,  unsigned char);
  19      =1  extern unsigned long _lrol_    (unsigned long, unsigned char);
  20      =1  extern unsigned char _chkfloat_(float);
  21      =1  extern void          _push_    (unsigned char _sfr);
C51 COMPILER V8.06   STOE                                                                  03/10/2026 15:30:55 PAGE 38  

  22      =1  extern void          _pop_     (unsigned char _sfr);
  23      =1  
  24      =1  #endif
  25      =1  
  30          
  31          #define XSTACKSIZE 64
  32          
  33          // GLOBAL VARIABLES DECLARATIONS
  34          LOCAL_STATION XDATA* PNetStation = {0};
  35          BUF_DESC_PAGE XDATA* PBDP = 0;
  36          void (*STOE_RcvCallback)(byte XDATA*, uint, byte); // call eth layer rcv process function.
  37          
  38          // LOCAL VARIABLES DECLARATIONS
  39          static byte XDATA stoe_BufferSize[STOE_SOCKET_BUFFER_SIZE] _at_ STOE_BDP_START_ADDR;
  40          static byte XDATA stoe_InterruptStatus = 0;
  41          
  42          // LOCAL SUBPROGRAM DECLARATIONS
  43          static void stoe_BdpInit(void);
  44          static void stoe_StartOperate(void);
  45          static void stoe_RcvHandle(void);
  46          //sr 3/5/12
  47          void stoe_StopOperate(void);
  48          
  49          // Reserved xstack for the functions with reenterence in bootloader and runtime code will use those functi
             -ons
  50          //byte XDATA xStackBuf[XSTACKSIZE] _at_ (STOE_BDP_START_ADDR-(4*PAGE_SIZE)- XSTACKSIZE);
  51          byte XDATA xStackBuf[XSTACKSIZE] _at_ (0x5700-(4*PAGE_SIZE)- XSTACKSIZE);
  52          
  53          // ----------------------------------------------------------------------------
  54          // Function Name: stoe_ReadReg
  55          // Purpose:
  56          // Params:
  57          // Returns:
  58          // Note:
  59          // ----------------------------------------------------------------------------
  60          void stoe_ReadReg(byte regaddr, byte XDATA* pbuf, byte length)
  61          {
  62   1              byte    isr;
  63   1      
  64   1              isr = EA;
  65   1              EA = 0;
  66   1              _nop_();
  67   1              TCIR = regaddr;
  68   1              while (length--)
  69   1                pbuf[length] = TDR;
  70   1              EA = isr;
  71   1      
  72   1      } // End of stoe_ReadReg //
  73          
  74          // ----------------------------------------------------------------------------
  75          // Function Name: stoe_WriteReg
  76          // Purpose:
  77          // Params:
  78          // Returns:
  79          // Note:
  80          // ----------------------------------------------------------------------------
  81          void stoe_WriteReg(byte regaddr, byte XDATA* pbuf, byte length)
  82          {
  83   1              byte    isr;
  84   1      
  85   1              isr = EA;
  86   1              EA = 0;
C51 COMPILER V8.06   STOE                                                                  03/10/2026 15:30:55 PAGE 39  

  87   1              while (length--)
  88   1                      TDR = pbuf[length];
  89   1              TCIR = regaddr;
  90   1              EA = isr;
  91   1      
  92   1      } // End of stoe_WriteReg
  93          
  94          // ----------------------------------------------------------------------------
  95          // Function Name: STOE_Init
  96          // Purpose: to initial all registers and variables of STOE. 
  97          // Params: network_type -0: auto- negotiation
  98          //                                              -1: fixed 100 full speed.
  99          //                                              -2: fixed 100 half speed.
 100          //                                              -3: fixed 10 full speed.
 101          //                                              -4: fixed 10 half speed.
 102          // Returns: none
 103          // Note:
 104          // ----------------------------------------------------------------------------
 105          void STOE_Init(byte network_type)
 106          {
 107   1              byte XDATA      temp[2];
 108   1              byte XDATA      value[6] = {0,0,0,0,0,0};
 109   1      
 110   1              // set xmit & rcv memory.
 111   1              stoe_BdpInit();
 112   1      
 113   1              PNetStation = &PBDP->NetStation;
 114   1      
 115   1              // source IP
 116   1              stoe_ReadReg(STOE_IP_ADDR_REG, (byte XDATA*)&PNetStation->DefaultIP, 4);
 117   1              PNetStation->StationIP = PNetStation->DefaultIP;
 118   1      
 119   1              // subnet mask
 120   1              stoe_ReadReg(STOE_SUBNET_MASK_REG, (byte XDATA*)&PNetStation->DefaultMask, 4);
 121   1              PNetStation->SubnetMask = PNetStation->DefaultMask;
 122   1      
 123   1              // gateway
 124   1              PNetStation->DefaultGateway = ((PNetStation->StationIP & PNetStation->SubnetMask) | 1);
 125   1              if (PNetStation->StationIP == PNetStation->DefaultGateway)
 126   1                {
 127   2                PNetStation->DefaultGateway |= (~PNetStation->SubnetMask);
 128   2                PNetStation->DefaultGateway &= 0xfffffffe;
 129   2                }
 130   1      
 131   1              // set L2 control register
 132   1              temp[0] = (RX_TRANSPARENT | TX_TRANSPARENT);
 133   1      
 134   1              stoe_WriteReg(STOE_L2_CTL_REG, temp, 1);
 135   1      
 136   1              // set ARP table timeout register
 137   1              temp[0] = STOE_ARP_TIMEOUT;
 138   1              stoe_WriteReg(STOE_ARP_TIMEOUT_REG, temp, 1);
 139   1      
 140   1              // set L4 control register
 141   1              temp[0] = (DROP_CHKSUMERR_PKT | ENABLE_XMIT_CHKSUM | ENABLE_XMIT_CROSS);
 142   1      
 143   1              stoe_WriteReg(STOE_L4_CTL_REG, temp, 1);
 144   1      
 145   1              // set BDP point
 146   1              temp[0] = (STOE_BDP_START_ADDR >> 16);
 147   1              temp[1] = (STOE_BDP_START_ADDR >> 8);
 148   1              stoe_WriteReg(STOE_L4_BDP_PNT_REG, temp, 2);
C51 COMPILER V8.06   STOE                                                                  03/10/2026 15:30:55 PAGE 40  

 149   1      
 150   1              // receive callback function initialize to null point.
 151   1              STOE_RcvCallback = 0;
 152   1      
 153   1              DMA_Init();
 154   1              DELAY_Init();
 155   1              MAC_Init(network_type);
 156   1      
 157   1              STOE_SetGateway(PNetStation->DefaultGateway);
 158   1      
 159   1      } // End of STOE_Init
 160          
 161          //-----------------------------------------------------------------------------
 162          // Function Name: stoe_BdpInit
 163          // Purpose: initial Buffer Descriptor Page.
 164          // Params:
 165          // Returns:
 166          // Note:
 167          // ----------------------------------------------------------------------------
 168          void stoe_BdpInit(void)
 169          {
 170   1              uint    page = (STOE_BDP_START_ADDR >> 8);
 171   1      
 172   1              PBDP = STOE_BDP_START_ADDR;
 173   1      
 174   1              // set BDP number
 175   1              PBDP->BDP_ID = 0;
 176   1      
 177   1              // set rcv buffer.
 178   1              PBDP->RSPP = page + 1;
 179   1              PBDP->REPP = page + PAGES_OF_RCV;
 180   1              PBDP->RHPR = PBDP->RSPP;
 181   1              PBDP->RTPR = PBDP->RSPP;
 182   1              PBDP->RFP = PAGES_OF_RCV;
 183   1      
 184   1              // set xmit buffer.
 185   1              PBDP->TSPP = page + 1 + PAGES_OF_RCV;
 186   1              PBDP->TEPP = page + PAGES_OF_RCV + PAGES_OF_XMIT;
 187   1              PBDP->THPR = PBDP->TSPP;
 188   1              PBDP->TTPR = PBDP->TSPP;
 189   1              PBDP->TFP = PAGES_OF_XMIT;
 190   1      
 191   1              // set rcv and xmit start/end buffer address.
 192   1              PBDP->RcvStartAddr = STOE_BDP_START_ADDR + 256;
 193   1              PBDP->XmtStartAddr = PBDP->RcvStartAddr + STOE_RCV_BUF_SIZE;
 194   1              PBDP->RcvEndAddr = PBDP->XmtStartAddr - 1;
 195   1              PBDP->XmtEndAddr = PBDP->XmtStartAddr + STOE_XMIT_BUF_SIZE - 1;
 196   1      
 197   1      } // End of stoe_BdpInit
 198          
 199          //#if (STOE_GET_IPADDR_TYPE == STOE_INITIAL_ASSIGN_IP)
 200          
 201          // ----------------------------------------------------------------------------
 202          // Function Name: STOE_SetIPAddr
 203          // Purpose:
 204          // Params:
 205          // Returns:
 206          // Note:
 207          // ----------------------------------------------------------------------------
 208          void STOE_SetIPAddr(ulong ip)
 209          {
 210   1              if (ip != PNetStation->StationIP)
C51 COMPILER V8.06   STOE                                                                  03/10/2026 15:30:55 PAGE 41  

 211   1              {
 212   2                      PNetStation->StationIP = ip;
 213   2                      stoe_WriteReg(STOE_IP_ADDR_REG, (byte XDATA*)&PNetStation->StationIP, 4);
 214   2              }
 215   1      
 216   1      } // End of STOE_SetIPAddr
 217          
 218          // ----------------------------------------------------------------------------
 219          // Function Name: STOE_SetSubnetMask
 220          // Purpose:
 221          // Params:
 222          // Returns:
 223          // Note:
 224          // ----------------------------------------------------------------------------
 225          void STOE_SetSubnetMask(ulong subnet)
 226          {
 227   1              if (subnet != PNetStation->SubnetMask)
 228   1              {
 229   2                      PNetStation->SubnetMask = subnet;
 230   2                      stoe_WriteReg(STOE_SUBNET_MASK_REG, (byte XDATA*)&PNetStation->SubnetMask, 4);
 231   2              }
 232   1      
 233   1      } // End of STOE_SetSubnetMask
 234          
 235          // ----------------------------------------------------------------------------
 236          // Function Name: STOE_Gateway
 237          // Purpose:
 238          // Params:
 239          // Returns:
 240          // Note:
 241          // ----------------------------------------------------------------------------
 242          void STOE_SetGateway(ulong XDATA gateway)
 243          {
 244   1              if (gateway != PNetStation->Gateway)
 245   1              {
 246   2                      PNetStation->Gateway = gateway;
 247   2      
 248   2                      stoe_WriteReg(STOE_GATEWAY_IP_REG, (byte XDATA*)&PNetStation->Gateway, 4);
 249   2                      ETH_RestartSendArpToGateway();
 250   2              }
 251   1      
 252   1      } // End of STOE_SetGateway
 253          //#endif
 254          
 255          // ----------------------------------------------------------------------------
 256          // Function Name: STOE_Start
 257          // Purpose: enable all used interrupts and set some register to start
 258          //                      timer, software-dma and processing received packets.
 259          // Params:
 260          // Returns:
 261          // Note:
 262          // ----------------------------------------------------------------------------
 263          void STOE_Start(void)
 264          {
 265   1              byte XDATA      temp;
 266   1      
 267   1              // clear interrupt status
 268   1              stoe_ReadReg(STOE_INT_STATUS_REG, &temp, 1);
 269   1              // start STOE L2/L3/L4 engines
 270   1              stoe_StartOperate();
 271   1              // start DMA module
 272   1              DMA_Start();
C51 COMPILER V8.06   STOE                                                                  03/10/2026 15:30:55 PAGE 42  

 273   1              // start MAC module
 274   1              MAC_Start();
 275   1              EXTINT4(1);     // Enable INT4 interrupt for stoe & mac modules.
 276   1      } // End of STOE_Start
 277          
 278          // ----------------------------------------------------------------------------
 279          // Function Name: STOE_ProcessInterrupt
 280          // Purpose: programmer can call this function by polling type to find that
 281          //                      interrupt event had happened.
 282          // Params:
 283          // Returns:
 284          // Note:
 285          // ----------------------------------------------------------------------------
 286          void STOE_ProcessInterrupt(void)
 287          {
 288   1              static byte XDATA       int_status;
 289   1              byte XDATA                      temp;
 290   1      
 291   1              while (1)
 292   1              {
 293   2                      // read stoe interrupt status
 294   2                      stoe_ReadReg(STOE_INT_STATUS_REG, &int_status, 1);
 295   2                      int_status &= STOE_DEFAULT_INT_MASK;
 296   2      
 297   2                      if (!int_status)
 298   2                              break;
 299   2      
 300   2                      if (int_status & RCV_PACKET)
 301   2                      {
 302   3                              while (PBDP->RFP < PAGES_OF_RCV)
 303   3                                      stoe_RcvHandle();
 304   3                      }
 305   2                      if (int_status & RCV_BUF_RING_FULL)
 306   2                      {
 307   3      //                      printd ("\rRX Packet Buffer Ring is Full.\n\r");
 308   3                              temp = RESUME_PKT_RCV;
 309   3                              stoe_WriteReg(STOE_L4_CMD_REG, &temp, 1);
 310   3                      }
 311   2              }
 312   1      }
 313          
 314          // ----------------------------------------------------------------------------
 315          // Function Name: STOE_WaitHwReleaseRcvBuf
 316          // Purpose:
 317          // Params:
 318          // Returns:
 319          // Note:
 320          // ----------------------------------------------------------------------------
 321          void STOE_WaitHwReleaseRcvBuf(void)
 322          {
 323   1              byte XDATA      temp;
 324   1              byte            isr;
 325   1      
 326   1              isr = EA;
 327   1              EA = 0;
 328   1              if (PBDP->RFP < PAGES_OF_RCV)
 329   1              {
 330   2                      PBDP->RHPR = PBDP->RTPR;
 331   2                      PBDP->RFP = PAGES_OF_RCV;
 332   2              }
 333   1              EA = isr;
 334   1      
C51 COMPILER V8.06   STOE                                                                  03/10/2026 15:30:55 PAGE 43  

 335   1              temp = RESUME_PKT_RCV;
 336   1              stoe_WriteReg(STOE_L4_CMD_REG, &temp, 1);
 337   1      
 338   1              DELAY_Us(1000);
 339   1      
 340   1              isr = EA;
 341   1              EA = 0;
 342   1              while (PBDP->RFP < PAGES_OF_RCV)
 343   1              {
 344   2                      PBDP->RHPR = PBDP->RTPR;
 345   2                      PBDP->RFP = PAGES_OF_RCV;
 346   2                      EA = isr;
 347   2      
 348   2                      DELAY_Us(1000);
 349   2      
 350   2                      isr = EA;
 351   2                      EA = 0;
 352   2              }
 353   1              EA = isr;
 354   1      
 355   1      } // End of STOE_WaitHwReleaseRcvBuf()
 356          
 357          // ----------------------------------------------------------------------------
 358          // Function Name: stoe_StartOperate
 359          // Purpose: start L2/L3/L4 engine
 360          // Params:
 361          // Returns:
 362          // Note:
 363          // ----------------------------------------------------------------------------
 364          void stoe_StartOperate(void)
 365          {
 366   1              byte XDATA      temp;
 367   1      
 368   1              stoe_ReadReg(STOE_L2_CTL_REG, &temp, 1);
 369   1      
 370   1              temp |= (RX_START_OPERA | TX_START_OPERA);
 371   1              stoe_WriteReg(STOE_L2_CTL_REG, &temp, 1);
 372   1      
 373   1      } // End of stoe_StartOperate
 374          
 375          //#if 0
 376          #if 1
 377          // ----------------------------------------------------------------------------
 378          // Function Name: stoe_StopOperate
 379          // Purpose: stop L2/L3/L4 engine
 380          // Params:
 381          // Returns:
 382          // Note:
 383          // ----------------------------------------------------------------------------
 384          void stoe_StopOperate(void)
 385          {
 386   1              byte XDATA      temp;
 387   1      
 388   1              stoe_ReadReg(STOE_L2_CTL_REG, &temp, 1);
 389   1      
 390   1              temp &= ~(RX_START_OPERA | TX_START_OPERA);
 391   1              stoe_WriteReg(STOE_L2_CTL_REG, &temp, 1);
 392   1      
 393   1      } // End of stoe_StopOperate
 394          #endif
 395          
 396          //-----------------------------------------------------------------------------
C51 COMPILER V8.06   STOE                                                                  03/10/2026 15:30:55 PAGE 44  

 397          // Function Name: stoe_RcvHandle
 398          // Purpose: 
 399          // Params: 
 400          // Returns:
 401          // Note:
 402          // ----------------------------------------------------------------------------
 403          void stoe_RcvHandle(void)
 404          {
 405   1              static STOE_FRAME_HEADER XDATA* pframe;
 406   1              uint    length;
 407   1              byte    pages, isr;
 408   1      
 409   1              pframe = ((PBDP->RHPR) << 8);
 410   1              length = (pframe->Length & 0xfff);
 411   1      
 412   1              PBDP->STOE_RxInform.Protocol = pframe->Protocol;
 413   1              PBDP->STOE_RxInform.TotalLen = length;
 414   1              PBDP->STOE_RxInform.PBuf = &pframe->Packet; 
 415   1      
 416   1              if (length && STOE_RcvCallback)
 417   1                      STOE_RcvCallback(&pframe->Packet, length, pframe->Protocol);
 418   1      
 419   1              if (PBDP->RHPR > pframe->NPR)
 420   1                      pages = (PBDP->TSPP - PBDP->RHPR) + (pframe->NPR - PBDP->RSPP);
 421   1              else
 422   1                      pages = pframe->NPR - PBDP->RHPR;
 423   1      
 424   1              isr = EA;
 425   1              EA = 0;
 426   1              PBDP->RHPR = pframe->NPR;
 427   1              PBDP->RFP += pages;
 428   1              EA = isr;
 429   1      
 430   1      } // End of stoe_RcvHandle
 431          
 432          //-----------------------------------------------------------------------------
 433          // Function Name: stoe_XmitHandle
 434          // Purpose: Set send packet bit to tell hardware transmit one packet to ethernet.
 435          // Params: 
 436          // Returns:     
 437          // Note:
 438          // ----------------------------------------------------------------------------
 439          void stoe_XmitHandle(void)
 440          {
 441   1              byte XDATA temp;
 442   1      
 443   1              stoe_ReadReg(STOE_L4_CMD_REG, &temp, 1);
 444   1              while (temp & XMIT_PACKET)
 445   1                      stoe_ReadReg(STOE_L4_CMD_REG, &temp, 1);
 446   1      
 447   1              temp = XMIT_PACKET;
 448   1              stoe_WriteReg(STOE_L4_CMD_REG, &temp, 1);
 449   1      
 450   1      } // stoe_XmitHandle
 451          
 452          //-----------------------------------------------------------------------------
 453          // Function Name: STOE_Send
 454          // Purpose:     Call this function to set add STOE header.
 455          // Params:      pbuf : buffer address, must between TSPP and TEPP.
 456          //                      length : packet length.
 457          //                      protocol : if the packet is ip packet, set the ip layer protocol,
 458          //                                              if not a ip packet, set value to 0xff.
C51 COMPILER V8.06   STOE                                                                  03/10/2026 15:30:55 PAGE 45  

 459          // Returns:
 460          // Note:
 461          // ----------------------------------------------------------------------------
 462          void STOE_Send(byte XDATA* pbuf, uint length, byte protocol)
 463          {
 464   1              STOE_FRAME_HEADER XDATA*        pframe =        (STOE_FRAME_HEADER XDATA*)pbuf;
 465   1              byte    occupypages = PBDP->STOE_TxInform.Pages;
 466   1              byte    isr;
 467   1      
 468   1              pframe->Length = length;
 469   1              pframe->Protocol = protocol;
 470   1      
 471   1              isr = EA;
 472   1              EA = 0;
 473   1              PBDP->TFP -= occupypages;
 474   1              EA = isr;
 475   1      
 476   1              PBDP->TTPR += occupypages;
 477   1              if (PBDP->TTPR > PBDP->TEPP)
 478   1                      PBDP->TTPR = PBDP->TSPP + PBDP->TTPR - PBDP->TEPP - 1;
 479   1      
 480   1              pframe->NPR = PBDP->TTPR;
 481   1      
 482   1              stoe_XmitHandle();
 483   1      
 484   1      } // End of STOE_Send()
 485          
 486          
 487          //-----------------------------------------------------------------------------
 488          // Function Name: STOE_AssignSendBuf
 489          // Purpose: Assign a buffer that adress is between TSPP and TEPP, so STOE engine
 490          //                              cans transmit the packet to MAC SRAM.
 491          // Params: length : Buffer size that the packet occupied.
 492          // Returns: Assigned transmit buffer address
 493          // Note:
 494          // ----------------------------------------------------------------------------
 495          byte XDATA* STOE_AssignSendBuf(uint length)
 496          {
 497   1              byte XDATA*     pframe;
 498   1              byte            occupypages;
 499   1      
 500   1              occupypages = ((length + PAGE_SIZE - 1)/PAGE_SIZE);
 501   1      
 502   1              if (PBDP->TFP <= occupypages)
 503   1                      return (byte XDATA*)0;
 504   1      
 505   1              pframe = ((PBDP->TTPR) << 8);
 506   1              PBDP->STOE_TxInform.Pages = occupypages;
 507   1      
 508   1              return pframe;
 509   1      
 510   1      } // End of STOE_AssignSendBuf
 511          
 512          /*//commented out by cjm
 513          #if (!BOOTLDR_ISR)
 514          //commented out by cjm*/
 515          //-----------------------------------------------------------------------------
 516          // Function Name: STOE_CopyCode2TPBR
 517          // Purpose: 
 518          // Params: 
 519          // Returns:
 520          // Note:
C51 COMPILER V8.06   STOE                                                                  03/10/2026 15:30:55 PAGE 46  

 521          // ----------------------------------------------------------------------------
 522          byte XDATA* STOE_CopyCode2TPBR(byte XDATA* pdest, byte* psour, uint length)
 523          {
 524   1              uint    space, leftlen;
 525   1      
 526   1              // destination address is not in range of TPBR.
 527   1              if ((pdest > PBDP->XmtEndAddr) || (pdest < PBDP->XmtStartAddr))
 528   1                      return 0;
 529   1      
 530   1              space = (uint)PBDP->XmtEndAddr - (uint)pdest + 1;
 531   1              if (space > length)
 532   1              {
 533   2                      while (length--)
 534   2                              *pdest++ = *psour++;
 535   2              }
 536   1              else
 537   1              {
 538   2                      leftlen = length - space;
 539   2      
 540   2                      while (space--)
 541   2                              *pdest++ = *psour++;
 542   2      
 543   2                      pdest = PBDP->XmtStartAddr;
 544   2      
 545   2                      while (leftlen--)
 546   2                              *pdest++ = *psour++;
 547   2              }
 548   1      
 549   1              return pdest;
 550   1      
 551   1      } // End of STOE_CopyCode2TPBR
 552          /*//commented out by cjm
 553          #endif
 554          //commented out by cjm*/
 555          
 556          //-----------------------------------------------------------------------------
 557          // Function Name: STOE_CHECK_MAC
 558          // Purpose: 
 559          // Params: 
 560          // Returns:
 561          // Note:
 562          // ----------------------------------------------------------------------------
 563          byte STOE_CHECK_MAC(ulong *ip_addr)
 564          {
 565   1              byte entry_addr, result[6] = {0};
 566   1            
 567   1              entry_addr = (byte)(*ip_addr & 0x7F) * 2;
 568   1      //      PRINTD(DEBUG_MSG, ("STOE_CHECK_MAC :: entry_addr = %bx\n\r", entry_addr));
 569   1              stoe_WriteReg(STOE_ARP_ADDR_REG, &entry_addr, 1);
 570   1      
 571   1              entry_addr = ARP_CACHE_CMD_READ | ARP_CACHE_CMD_GO;
 572   1              stoe_WriteReg(STOE_ARP_CMD_REG, &entry_addr, 1);
 573   1      
 574   1              stoe_ReadReg(STOE_ARP_DATA_REG, result, 6);
 575   1      
 576   1              if (result[0]& 0x80)
 577   1                      return 1;
 578   1              
 579   1              return 0;
 580   1      
 581   1      } // End of STOE_CHECK_MAC()
 582          
C51 COMPILER V8.06   STOE                                                                  03/10/2026 15:30:55 PAGE 47  

 583          // End of stoe.c
C51 COMPILER V8.06   STOE                                                                  03/10/2026 15:30:55 PAGE 48  

ASSEMBLY LISTING OF GENERATED OBJECT CODE


             ; FUNCTION Com003A (BEGIN)
0000         L?0059:
0000 8D82              MOV     DPL,R5
0002 8C83              MOV     DPH,R4
0004 759300      E     MOV     DPX,#?C?XDATASEG
0007 E582              MOV     A,DPL
0009 2408              ADD     A,#08H
000B F582              MOV     DPL,A
000D E4                CLR     A
000E 3583              ADDC    A,DPH
0010 F583              MOV     DPH,A
0012 759300      E     MOV     DPX,#?C?XDATASEG
0015 E0                MOVX    A,@DPTR
0016 FA                MOV     R2,A
0017 A3                INC     DPTR
0018 E0                MOVX    A,@DPTR
0019 FB                MOV     R3,A
001A 8D82              MOV     DPL,R5
001C 8C83              MOV     DPH,R4
001E 759300      E     MOV     DPX,#?C?XDATASEG
0021 E582              MOV     A,DPL
0023 2406              ADD     A,#06H
0025 F582              MOV     DPL,A
0027 E4                CLR     A
0028 3583              ADDC    A,DPH
002A F583              MOV     DPH,A
002C 759300      E     MOV     DPX,#?C?XDATASEG
002F EA                MOV     A,R2
0030 F0                MOVX    @DPTR,A
0031 A3                INC     DPTR
0032 EB                MOV     A,R3
0033 F0                MOVX    @DPTR,A
0034 90000000    R     MOV     DPTR,#PBDP
0038 E0                MOVX    A,@DPTR
0039 FC                MOV     R4,A
003A A3                INC     DPTR
003B E0                MOVX    A,@DPTR
003C         L?0060:
003C 8C83              MOV     DPH,R4
003E         L?0061:
003E 759300      E     MOV     DPX,#?C?XDATASEG
0041         L?0062:
0041 240A              ADD     A,#0AH
0043         L?0063:
0043 F582              MOV     DPL,A
0045 E4                CLR     A
0046 3583              ADDC    A,DPH
0048 F583              MOV     DPH,A
004A 759300      E     MOV     DPX,#?C?XDATASEG
004D 22                RET     
004E         L?0064:
004E         L?0065:
004E E0                MOVX    A,@DPTR
004F FC                MOV     R4,A
0050 A3                INC     DPTR
0051 E0                MOVX    A,@DPTR
0052 FD                MOV     R5,A
0053 A3                INC     DPTR
0054         L?0066:
C51 COMPILER V8.06   STOE                                                                  03/10/2026 15:30:55 PAGE 49  

0054 E0                MOVX    A,@DPTR
0055 FE                MOV     R6,A
0056 A3                INC     DPTR
0057 E0                MOVX    A,@DPTR
0058 FF                MOV     R7,A
0059         L?0067:
0059 8B82              MOV     DPL,R3
005B 8A83              MOV     DPH,R2
005D 759300      E     MOV     DPX,#?C?XDATASEG
0060 E582              MOV     A,DPL
0062 22                RET     
0063         L?0068:
0063         L?0069:
0063 12000000    E     LCALL   ?C?LSTXDATA
0067         L?0070:
0067 90000000    R     MOV     DPTR,#PNetStation
006B         L?0071:
006B E0                MOVX    A,@DPTR
006C FE                MOV     R6,A
006D A3                INC     DPTR
006E E0                MOVX    A,@DPTR
006F 8E83              MOV     DPH,R6
0071 759300      E     MOV     DPX,#?C?XDATASEG
0074 22                RET     
0075         L?0072:
0075         L?0073:
0075 E0                MOVX    A,@DPTR
0076 FC                MOV     R4,A
0077 A3                INC     DPTR
0078 E0                MOVX    A,@DPTR
0079 FD                MOV     R5,A
007A A3                INC     DPTR
007B E0                MOVX    A,@DPTR
007C FE                MOV     R6,A
007D A3                INC     DPTR
007E E0                MOVX    A,@DPTR
007F         L?0074:
007F FF                MOV     R7,A
0080         L?0075:
0080 90000000    R     MOV     DPTR,#PNetStation
0084         L?0076:
0084 E0                MOVX    A,@DPTR
0085 FA                MOV     R2,A
0086 A3                INC     DPTR
0087 E0                MOVX    A,@DPTR
0088 FB                MOV     R3,A
0089 8A83              MOV     DPH,R2
008B 759300      E     MOV     DPX,#?C?XDATASEG
008E 22                RET     
008F         L?0077:
008F         L?0078:
008F 90000000    R     MOV     DPTR,#psour
0093 E0                MOVX    A,@DPTR
0094 FB                MOV     R3,A
0095 A3                INC     DPTR
0096 E4                CLR     A
0097 75F001            MOV     B,#01H
009A 12000000    E     LCALL   ?C?ILDIX
009E A9F0              MOV     R1,B
00A0 FA                MOV     R2,A
00A1 12000000    E     LCALL   ?C?CLDPTR
00A5 FF                MOV     R7,A
C51 COMPILER V8.06   STOE                                                                  03/10/2026 15:30:55 PAGE 50  

00A6 90000000    R     MOV     DPTR,#pdest
00AA E4                CLR     A
00AB 75F001            MOV     B,#01H
00AE 12000000    E     LCALL   ?C?ILDIX
00B2 85F082            MOV     DPL,B
00B5 F583              MOV     DPH,A
00B7 759300      E     MOV     DPX,#?C?XDATASEG
00BA EF                MOV     A,R7
00BB F0                MOVX    @DPTR,A
00BC 22                RET     
00BD         L?0079:
00BD E0                MOVX    A,@DPTR
00BE FE                MOV     R6,A
00BF A3                INC     DPTR
00C0 E0                MOVX    A,@DPTR
00C1         L?0080:
00C1 FF                MOV     R7,A
00C2         L?0081:
00C2 90000000    R     MOV     DPTR,#PBDP
00C6 E0                MOVX    A,@DPTR
00C7 FC                MOV     R4,A
00C8 A3                INC     DPTR
00C9 E0                MOVX    A,@DPTR
00CA FD                MOV     R5,A
00CB 8C83              MOV     DPH,R4
00CD 759300      E     MOV     DPX,#?C?XDATASEG
00D0 22                RET     
00D1         L?0082:
00D1 E0                MOVX    A,@DPTR
00D2         L?0083:
00D2 FF                MOV     R7,A
00D3         L?0084:
00D3 8D82              MOV     DPL,R5
00D5 8C83              MOV     DPH,R4
00D7 759300      E     MOV     DPX,#?C?XDATASEG
00DA E582              MOV     A,DPL
00DC 22                RET     
00DD         L?0085:
00DD         L?0086:
00DD E0                MOVX    A,@DPTR
00DE FC                MOV     R4,A
00DF A3                INC     DPTR
00E0 E0                MOVX    A,@DPTR
00E1 FD                MOV     R5,A
00E2 A3                INC     DPTR
00E3 E0                MOVX    A,@DPTR
00E4 FE                MOV     R6,A
00E5 A3                INC     DPTR
00E6 E0                MOVX    A,@DPTR
00E7 22                RET     
00E8         L?0087:
00E8 FF                MOV     R7,A
00E9         L?0088:
00E9 E0                MOVX    A,@DPTR
00EA F8                MOV     R0,A
00EB A3                INC     DPTR
00EC E0                MOVX    A,@DPTR
00ED F9                MOV     R1,A
00EE A3                INC     DPTR
00EF E0                MOVX    A,@DPTR
00F0 FA                MOV     R2,A
00F1 A3                INC     DPTR
C51 COMPILER V8.06   STOE                                                                  03/10/2026 15:30:55 PAGE 51  

00F2 E0                MOVX    A,@DPTR
00F3 FB                MOV     R3,A
00F4 22                RET     
00F5         L?0089:
00F5 90000000    R     MOV     DPTR,#pframe
00F9         L?0090:
00F9 E0                MOVX    A,@DPTR
00FA FC                MOV     R4,A
00FB A3                INC     DPTR
00FC E0                MOVX    A,@DPTR
00FD         L?0091:
00FD F582              MOV     DPL,A
00FF 8C83              MOV     DPH,R4
0101 759300      E     MOV     DPX,#?C?XDATASEG
0104 22                RET     
0105         L?0092:
0105 A2AF              MOV     C,EA
0107 E4                CLR     A
0108 33                RLC     A
0109 FF                MOV     R7,A
010A C2AF              CLR     EA
010C         L?0093:
010C 90000000    R     MOV     DPTR,#PBDP
0110 E0                MOVX    A,@DPTR
0111 FC                MOV     R4,A
0112 A3                INC     DPTR
0113 E0                MOVX    A,@DPTR
0114 22                RET     
0115         L?0094:
0115 90000000    R     MOV     DPTR,#PNetStation
0119         L?0095:
0119 E0                MOVX    A,@DPTR
011A FE                MOV     R6,A
011B A3                INC     DPTR
011C E0                MOVX    A,@DPTR
011D FF                MOV     R7,A
011E 8E83              MOV     DPH,R6
0120 759300      E     MOV     DPX,#?C?XDATASEG
0123 22                RET     
0124         L?0096:
0124         L?0097:
0124 8F82              MOV     DPL,R7
0126 8E83              MOV     DPH,R6
0128 759300      E     MOV     DPX,#?C?XDATASEG
012B E582              MOV     A,DPL
012D 22                RET     
012E         L?0098:
012E EC                MOV     A,R4
012F F0                MOVX    @DPTR,A
0130 A3                INC     DPTR
0131 ED                MOV     A,R5
0132 F0                MOVX    @DPTR,A
0133 8B82              MOV     DPL,R3
0135 8A83              MOV     DPH,R2
0137 759300      E     MOV     DPX,#?C?XDATASEG
013A A3                INC     DPTR
013B A3                INC     DPTR
013C E0                MOVX    A,@DPTR
013D FC                MOV     R4,A
013E A3                INC     DPTR
013F E0                MOVX    A,@DPTR
0140 FD                MOV     R5,A
C51 COMPILER V8.06   STOE                                                                  03/10/2026 15:30:55 PAGE 52  

0141 22                RET     
0142         L?0100:
0142         L?0101:
0142 74FF              MOV     A,#0FFH
0144 F5F0              MOV     B,A
0146 12000000    E     LCALL   ?C?ILDIX
014A 45F0              ORL     A,B
014C 22                RET     
014D         L?0103:
014D 90000000    R     MOV     DPTR,#_STOE_RcvCallback
0151         L?0104:
0151 E0                MOVX    A,@DPTR
0152 FB                MOV     R3,A
0153 A3                INC     DPTR
0154 E0                MOVX    A,@DPTR
0155 FA                MOV     R2,A
0156 A3                INC     DPTR
0157 E0                MOVX    A,@DPTR
0158 22                RET     
0159         L?0105:
0159 2420              ADD     A,#020H
015B         L?0106:
015B F582              MOV     DPL,A
015D E4                CLR     A
015E 3583              ADDC    A,DPH
0160 F583              MOV     DPH,A
0162 22                RET     
0163         L?0107:
0163 7B01              MOV     R3,#01H
0165 02000000    R     LJMP    _stoe_WriteReg
0169         L?0108:
0169 7F30              MOV     R7,#030H
016B         L?0109:
016B 7B01              MOV     R3,#01H
016D 02000000    R     LJMP    _stoe_ReadReg
0171         L?0110:
0171 8D82              MOV     DPL,R5
0173 8C83              MOV     DPH,R4
0175 759300      E     MOV     DPX,#?C?XDATASEG
0178 A3                INC     DPTR
0179 A3                INC     DPTR
017A 22                RET     
017B         L?0111:
017B E0                MOVX    A,@DPTR
017C FE                MOV     R6,A
017D A3                INC     DPTR
017E E0                MOVX    A,@DPTR
017F C3                CLR     C
0180 9401              SUBB    A,#01H
0182 FF                MOV     R7,A
0183 EE                MOV     A,R6
0184 22                RET     
0185         L?0112:
0185         L?0113:
0185 F0                MOVX    @DPTR,A
0186 EF                MOV     A,R7
0187 24FF              ADD     A,#0FFH
0189 92AF              MOV     EA,C
018B 22                RET     
             ; FUNCTION Com003A (END)

             ; FUNCTION L?0102 (BEGIN)
C51 COMPILER V8.06   STOE                                                                  03/10/2026 15:30:55 PAGE 53  

0000 FD                MOV     R5,A
0001 90000000    R     MOV     DPTR,#PNetStation
0005 E0                MOVX    A,@DPTR
0006 3400              ADDC    A,#00H
0008 FC                MOV     R4,A
0009 7B04              MOV     R3,#04H
             ; FUNCTION _stoe_ReadReg (BEGIN)
                                           ; SOURCE LINE # 60
;---- Variable 'regaddr' assigned to Register 'R7' ----
;---- Variable 'length' assigned to Register 'R3' ----
;---- Variable 'pbuf' assigned to Register 'R4/R5' ----
                                           ; SOURCE LINE # 61
                                           ; SOURCE LINE # 64
000B A2AF              MOV     C,EA
000D E4                CLR     A
000E 33                RLC     A
000F FE                MOV     R6,A
;---- Variable 'isr' assigned to Register 'R6' ----
                                           ; SOURCE LINE # 65
0010 C2AF              CLR     EA
                                           ; SOURCE LINE # 66
0012 00                NOP     
                                           ; SOURCE LINE # 67
0013 8FAE              MOV     TCIR,R7
0015         ?C0001:
                                           ; SOURCE LINE # 68
0015 AF03              MOV     R7,AR3
0017 1B                DEC     R3
0018 EF                MOV     A,R7
0019 600E              JZ      ?C0002
                                           ; SOURCE LINE # 69
001B 12000000    R     LCALL   L?0084
001F 2B                ADD     A,R3
0020 12000000    R     LCALL   L?0063
0024 E5AF              MOV     A,TDR
0026 F0                MOVX    @DPTR,A
0027 80EC              SJMP    ?C0001
0029         ?C0002:
                                           ; SOURCE LINE # 70
0029 AF06              MOV     R7,AR6
002B EE                MOV     A,R6
002C 24FF              ADD     A,#0FFH
002E 92AF              MOV     EA,C
                                           ; SOURCE LINE # 72
0030 22                RET     
             ; FUNCTION _stoe_ReadReg (END)

             ; FUNCTION L?0099 (BEGIN)
0000 FD                MOV     R5,A
0001 E4                CLR     A
0002 3A                ADDC    A,R2
0003 FC                MOV     R4,A
0004 7B04              MOV     R3,#04H
             ; FUNCTION _stoe_WriteReg (BEGIN)
                                           ; SOURCE LINE # 81
;---- Variable 'regaddr' assigned to Register 'R7' ----
;---- Variable 'length' assigned to Register 'R3' ----
;---- Variable 'pbuf' assigned to Register 'R4/R5' ----
                                           ; SOURCE LINE # 82
                                           ; SOURCE LINE # 85
0006 A2AF              MOV     C,EA
0008 E4                CLR     A
C51 COMPILER V8.06   STOE                                                                  03/10/2026 15:30:55 PAGE 54  

0009 33                RLC     A
000A FE                MOV     R6,A
;---- Variable 'isr' assigned to Register 'R6' ----
                                           ; SOURCE LINE # 86
000B C2AF              CLR     EA
000D         ?C0004:
                                           ; SOURCE LINE # 87
000D AA03              MOV     R2,AR3
000F 1B                DEC     R3
0010 EA                MOV     A,R2
0011 600E              JZ      ?C0005
                                           ; SOURCE LINE # 88
0013 12000000    R     LCALL   L?0084
0017 2B                ADD     A,R3
0018 12000000    R     LCALL   L?0063
001C E0                MOVX    A,@DPTR
001D F5AF              MOV     TDR,A
001F 80EC              SJMP    ?C0004
0021         ?C0005:
                                           ; SOURCE LINE # 89
0021 8FAE              MOV     TCIR,R7
                                           ; SOURCE LINE # 90
0023 AF06              MOV     R7,AR6
0025 EE                MOV     A,R6
0026 24FF              ADD     A,#0FFH
0028 92AF              MOV     EA,C
                                           ; SOURCE LINE # 92
002A 22                RET     
             ; FUNCTION _stoe_WriteReg (END)

             ; FUNCTION _STOE_Init (BEGIN)
                                           ; SOURCE LINE # 105
0000 90000000    R     MOV     DPTR,#network_type
0004 EF                MOV     A,R7
0005 F0                MOVX    @DPTR,A
                                           ; SOURCE LINE # 106
                                           ; SOURCE LINE # 108
0006 7800        R     MOV     R0,#LOW value
0008 7C00        R     MOV     R4,#HIGH value
000A 7D00        R     MOV     R5,#MBYTE value
000C 7B00        R     MOV     R3,#MBYTE _?ix1000
000E 7A00        R     MOV     R2,#HIGH _?ix1000
0010 7900        R     MOV     R1,#LOW _?ix1000
0012 7E00              MOV     R6,#00H
0014 7F06              MOV     R7,#06H
0016 12000000    E     LCALL   ?C?COPY
                                           ; SOURCE LINE # 111
001A 12000000    R     LCALL   stoe_BdpInit
                                           ; SOURCE LINE # 113
001E 90000000    R     MOV     DPTR,#PBDP+01H
0022 E0                MOVX    A,@DPTR
0023 240C              ADD     A,#0CH
0025 FE                MOV     R6,A
0026 90000000    R     MOV     DPTR,#PBDP
002A E0                MOVX    A,@DPTR
002B 3400              ADDC    A,#00H
002D 90000000    R     MOV     DPTR,#PNetStation
0031 F0                MOVX    @DPTR,A
0032 A3                INC     DPTR
0033 CE                XCH     A,R6
0034 F0                MOVX    @DPTR,A
                                           ; SOURCE LINE # 116
C51 COMPILER V8.06   STOE                                                                  03/10/2026 15:30:55 PAGE 55  

0035 E0                MOVX    A,@DPTR
0036 2418              ADD     A,#018H
0038 7F10              MOV     R7,#010H
003A 12000000    R     LCALL   L?0102
                                           ; SOURCE LINE # 117
003E 12000000    R     LCALL   L?0075
0042 2418              ADD     A,#018H
0044 12000000    R     LCALL   L?0063
0048 12000000    R     LCALL   L?0064
004C 240C              ADD     A,#0CH
004E 12000000    R     LCALL   L?0063
0052 12000000    E     LCALL   ?C?LSTXDATA
                                           ; SOURCE LINE # 120
0056 90000000    R     MOV     DPTR,#PNetStation+01H
005A E0                MOVX    A,@DPTR
005B 241C              ADD     A,#01CH
005D 7F14              MOV     R7,#014H
005F 12000000    R     LCALL   L?0102
                                           ; SOURCE LINE # 121
0063 12000000    R     LCALL   L?0075
0067 241C              ADD     A,#01CH
0069 12000000    R     LCALL   L?0063
006D 12000000    R     LCALL   L?0064
0071 2410              ADD     A,#010H
0073 12000000    R     LCALL   L?0063
0077 12000000    E     LCALL   ?C?LSTXDATA
                                           ; SOURCE LINE # 124
007B 12000000    R     LCALL   L?0094
007F 2410              ADD     A,#010H
0081 12000000    R     LCALL   L?0063
0085 12000000    R     LCALL   L?0088
0089 12000000    R     LCALL   L?0096
008D 240C              ADD     A,#0CH
008F 12000000    R     LCALL   L?0063
0093 12000000    R     LCALL   L?0085
0097 5B                ANL     A,R3
0098 FF                MOV     R7,A
0099 EE                MOV     A,R6
009A 5A                ANL     A,R2
009B FE                MOV     R6,A
009C ED                MOV     A,R5
009D 59                ANL     A,R1
009E FD                MOV     R5,A
009F EC                MOV     A,R4
00A0 58                ANL     A,R0
00A1 FC                MOV     R4,A
00A2 EF                MOV     A,R7
00A3 4401              ORL     A,#01H
00A5 12000000    R     LCALL   L?0074
00A9 2420              ADD     A,#020H
00AB 12000000    R     LCALL   L?0063
00AF 12000000    E     LCALL   ?C?LSTXDATA
                                           ; SOURCE LINE # 125
00B3 12000000    R     LCALL   L?0067
00B7 2420              ADD     A,#020H
00B9 12000000    R     LCALL   L?0063
00BD 12000000    R     LCALL   L?0065
00C1 240C              ADD     A,#0CH
00C3 12000000    R     LCALL   L?0063
00C7 12000000    R     LCALL   L?0088
00CB C3                CLR     C
00CC 12000000    E     LCALL   ?C?ULCMP
C51 COMPILER V8.06   STOE                                                                  03/10/2026 15:30:55 PAGE 56  

00D0 705B              JNZ     ?C0007
                                           ; SOURCE LINE # 126
                                           ; SOURCE LINE # 127
00D2 12000000    R     LCALL   L?0094
00D6 12000000    R     LCALL   L?0105
00DA C083              PUSH    DPH
00DC C082              PUSH    DPL
00DE 759300      E     MOV     DPX,#?C?XDATASEG
00E1 12000000    R     LCALL   L?0088
00E5 12000000    R     LCALL   L?0096
00E9 2410              ADD     A,#010H
00EB 12000000    R     LCALL   L?0063
00EF 12000000    R     LCALL   L?0085
00F3 FF                MOV     R7,A
00F4 12000000    E     LCALL   ?C?LNOT
00F8 EB                MOV     A,R3
00F9 4F                ORL     A,R7
00FA FF                MOV     R7,A
00FB EA                MOV     A,R2
00FC 4E                ORL     A,R6
00FD FE                MOV     R6,A
00FE E9                MOV     A,R1
00FF 4D                ORL     A,R5
0100 FD                MOV     R5,A
0101 E8                MOV     A,R0
0102 4C                ORL     A,R4
0103 FC                MOV     R4,A
0104 759300      E     MOV     DPX,#?C?XDATASEG
0107 D082              POP     DPL
0109 D083              POP     DPH
                                           ; SOURCE LINE # 128
010B 12000000    R     LCALL   L?0068
010F 12000000    R     LCALL   L?0105
0113 C083              PUSH    DPH
0115 C082              PUSH    DPL
0117 759300      E     MOV     DPX,#?C?XDATASEG
011A 12000000    R     LCALL   L?0086
011E 54FE              ANL     A,#0FEH
0120 FF                MOV     R7,A
0121 EC                MOV     A,R4
0122 759300      E     MOV     DPX,#?C?XDATASEG
0125 D082              POP     DPL
0127 D083              POP     DPH
0129 12000000    E     LCALL   ?C?LSTXDATA
                                           ; SOURCE LINE # 129
012D         ?C0007:
                                           ; SOURCE LINE # 132
012D 90000000    R     MOV     DPTR,#temp
0131 7422              MOV     A,#022H
0133 F0                MOVX    @DPTR,A
                                           ; SOURCE LINE # 134
0134 7C00        R     MOV     R4,#HIGH temp
0136 7D00        R     MOV     R5,#LOW temp
0138 7B01              MOV     R3,#01H
013A E4                CLR     A
013B FF                MOV     R7,A
013C 12000000    R     LCALL   _stoe_WriteReg
                                           ; SOURCE LINE # 137
0140 90000000    R     MOV     DPTR,#temp
0144 7410              MOV     A,#010H
0146 F0                MOVX    @DPTR,A
                                           ; SOURCE LINE # 138
C51 COMPILER V8.06   STOE                                                                  03/10/2026 15:30:55 PAGE 57  

0147 7F0E              MOV     R7,#0EH
0149 12000000    R     LCALL   L?0107
                                           ; SOURCE LINE # 141
014D 90000000    R     MOV     DPTR,#temp
0151 740B              MOV     A,#0BH
0153 F0                MOVX    @DPTR,A
                                           ; SOURCE LINE # 143
0154 7F20              MOV     R7,#020H
0156 12000000    R     LCALL   L?0107
                                           ; SOURCE LINE # 146
015A E4                CLR     A
015B 90000000    R     MOV     DPTR,#temp
015F F0                MOVX    @DPTR,A
                                           ; SOURCE LINE # 147
0160 A3                INC     DPTR
0161 7467              MOV     A,#067H
0163 F0                MOVX    @DPTR,A
                                           ; SOURCE LINE # 148
0164 7B02              MOV     R3,#02H
0166 7F22              MOV     R7,#022H
0168 12000000    R     LCALL   _stoe_WriteReg
                                           ; SOURCE LINE # 151
016C 90000000    R     MOV     DPTR,#_STOE_RcvCallback
0170 E4                CLR     A
0171 F0                MOVX    @DPTR,A
0172 A3                INC     DPTR
0173 F0                MOVX    @DPTR,A
0174 A3                INC     DPTR
0175 F0                MOVX    @DPTR,A
                                           ; SOURCE LINE # 153
0176 12000000    E     LCALL   DMA_Init
                                           ; SOURCE LINE # 154
017A 12000000    E     LCALL   DELAY_Init
                                           ; SOURCE LINE # 155
017E 90000000    R     MOV     DPTR,#network_type
0182 E0                MOVX    A,@DPTR
0183 FF                MOV     R7,A
0184 12000000    E     LCALL   _MAC_Init
                                           ; SOURCE LINE # 157
0188 12000000    R     LCALL   L?0070
018C 2420              ADD     A,#020H
018E 12000000    R     LCALL   L?0063
0192 12000000    R     LCALL   L?0086
0196 FF                MOV     R7,A
0197 02000000    R     LJMP    _STOE_SetGateway
             ; FUNCTION _STOE_Init (END)

             ; FUNCTION stoe_BdpInit (BEGIN)
                                           ; SOURCE LINE # 168
                                           ; SOURCE LINE # 169
                                           ; SOURCE LINE # 170
;---- Variable 'page' assigned to Register 'R6/R7' ----
0000 7F67              MOV     R7,#067H
0002 7E00              MOV     R6,#00H
                                           ; SOURCE LINE # 172
0004 90000000    R     MOV     DPTR,#PBDP
0008 7467              MOV     A,#067H
000A F0                MOVX    @DPTR,A
000B A3                INC     DPTR
000C E4                CLR     A
000D F0                MOVX    @DPTR,A
                                           ; SOURCE LINE # 175
C51 COMPILER V8.06   STOE                                                                  03/10/2026 15:30:55 PAGE 58  

000E 12000000    R     LCALL   L?0093
0012 FD                MOV     R5,A
0013 12000000    R     LCALL   L?0091
0017 E4                CLR     A
0018 F0                MOVX    @DPTR,A
                                           ; SOURCE LINE # 178
0019 EF                MOV     A,R7
001A 2401              ADD     A,#01H
001C FA                MOV     R2,A
001D EE                MOV     A,R6
001E 33                RLC     A
001F 12000000    R     LCALL   L?0110
0023 F0                MOVX    @DPTR,A
0024 A3                INC     DPTR
0025 CA                XCH     A,R2
0026 F0                MOVX    @DPTR,A
                                           ; SOURCE LINE # 179
0027 EF                MOV     A,R7
0028 2410              ADD     A,#010H
002A FD                MOV     R5,A
002B EE                MOV     A,R6
002C 33                RLC     A
002D FC                MOV     R4,A
002E 90000000    R     MOV     DPTR,#PBDP
0032 12000000    R     LCALL   L?0076
0036 2404              ADD     A,#04H
0038 12000000    R     LCALL   L?0063
                                           ; SOURCE LINE # 180
003C 12000000    R     LCALL   L?0098
0040 12000000    R     LCALL   L?0067
0044 2406              ADD     A,#06H
0046 12000000    R     LCALL   L?0063
                                           ; SOURCE LINE # 181
004A 12000000    R     LCALL   L?0098
004E 12000000    R     LCALL   L?0067
0052 2408              ADD     A,#08H
0054 12000000    R     LCALL   L?0063
0058 EC                MOV     A,R4
0059 F0                MOVX    @DPTR,A
005A A3                INC     DPTR
005B ED                MOV     A,R5
005C F0                MOVX    @DPTR,A
                                           ; SOURCE LINE # 182
005D 12000000    R     LCALL   L?0067
0061 12000000    R     LCALL   L?0062
0065 7410              MOV     A,#010H
0067 F0                MOVX    @DPTR,A
                                           ; SOURCE LINE # 185
0068 EF                MOV     A,R7
0069 2401              ADD     A,#01H
006B FD                MOV     R5,A
006C EE                MOV     A,R6
006D 33                RLC     A
006E CD                XCH     A,R5
006F 2410              ADD     A,#010H
0071 CD                XCH     A,R5
0072 3400              ADDC    A,#00H
0074 FC                MOV     R4,A
0075 12000000    R     LCALL   L?0067
0079 2480              ADD     A,#080H
007B 12000000    R     LCALL   L?0063
007F EC                MOV     A,R4
C51 COMPILER V8.06   STOE                                                                  03/10/2026 15:30:55 PAGE 59  

0080 F0                MOVX    @DPTR,A
0081 A3                INC     DPTR
0082 ED                MOV     A,R5
0083 F0                MOVX    @DPTR,A
                                           ; SOURCE LINE # 186
0084 EF                MOV     A,R7
0085 2410              ADD     A,#010H
0087 FF                MOV     R7,A
0088 EE                MOV     A,R6
0089 33                RLC     A
008A CF                XCH     A,R7
008B 2408              ADD     A,#08H
008D CF                XCH     A,R7
008E 3400              ADDC    A,#00H
0090 FE                MOV     R6,A
0091 12000000    R     LCALL   L?0067
0095 2482              ADD     A,#082H
0097 12000000    R     LCALL   L?0063
009B EE                MOV     A,R6
009C F0                MOVX    @DPTR,A
009D A3                INC     DPTR
009E EF                MOV     A,R7
009F F0                MOVX    @DPTR,A
                                           ; SOURCE LINE # 187
00A0 12000000    R     LCALL   L?0067
00A4 2480              ADD     A,#080H
00A6 12000000    R     LCALL   L?0063
00AA 12000000    R     LCALL   L?0066
00AE 2484              ADD     A,#084H
00B0 12000000    R     LCALL   L?0063
00B4 EE                MOV     A,R6
00B5 F0                MOVX    @DPTR,A
00B6 A3                INC     DPTR
00B7 EF                MOV     A,R7
00B8 F0                MOVX    @DPTR,A
                                           ; SOURCE LINE # 188
00B9 12000000    R     LCALL   L?0067
00BD 2480              ADD     A,#080H
00BF 12000000    R     LCALL   L?0063
00C3 12000000    R     LCALL   L?0066
00C7 2486              ADD     A,#086H
00C9 12000000    R     LCALL   L?0063
00CD EE                MOV     A,R6
00CE F0                MOVX    @DPTR,A
00CF A3                INC     DPTR
00D0 EF                MOV     A,R7
00D1 F0                MOVX    @DPTR,A
                                           ; SOURCE LINE # 189
00D2 12000000    R     LCALL   L?0067
00D6 2488              ADD     A,#088H
00D8 12000000    R     LCALL   L?0063
00DC 7408              MOV     A,#08H
00DE F0                MOVX    @DPTR,A
                                           ; SOURCE LINE # 192
00DF 12000000    R     LCALL   L?0067
00E3 248C              ADD     A,#08CH
00E5 12000000    R     LCALL   L?0063
00E9 7468              MOV     A,#068H
00EB F0                MOVX    @DPTR,A
00EC A3                INC     DPTR
00ED E4                CLR     A
00EE F0                MOVX    @DPTR,A
C51 COMPILER V8.06   STOE                                                                  03/10/2026 15:30:55 PAGE 60  

                                           ; SOURCE LINE # 193
00EF 12000000    R     LCALL   L?0067
00F3 248C              ADD     A,#08CH
00F5 12000000    R     LCALL   L?0063
00F9 E0                MOVX    A,@DPTR
00FA FE                MOV     R6,A
00FB A3                INC     DPTR
00FC E0                MOVX    A,@DPTR
00FD 2400              ADD     A,#00H
00FF FF                MOV     R7,A
0100 EE                MOV     A,R6
0101 3410              ADDC    A,#010H
0103 FE                MOV     R6,A
0104 12000000    R     LCALL   L?0067
0108 2490              ADD     A,#090H
010A 12000000    R     LCALL   L?0063
010E EE                MOV     A,R6
010F F0                MOVX    @DPTR,A
0110 A3                INC     DPTR
0111 EF                MOV     A,R7
0112 F0                MOVX    @DPTR,A
                                           ; SOURCE LINE # 194
0113 12000000    R     LCALL   L?0067
0117 2490              ADD     A,#090H
0119 12000000    R     LCALL   L?0063
011D 12000000    R     LCALL   L?0111
0121 9400              SUBB    A,#00H
0123 FE                MOV     R6,A
0124 12000000    R     LCALL   L?0067
0128 248E              ADD     A,#08EH
012A 12000000    R     LCALL   L?0063
012E EE                MOV     A,R6
012F F0                MOVX    @DPTR,A
0130 A3                INC     DPTR
0131 EF                MOV     A,R7
0132 F0                MOVX    @DPTR,A
                                           ; SOURCE LINE # 195
0133 12000000    R     LCALL   L?0067
0137 2490              ADD     A,#090H
0139 12000000    R     LCALL   L?0063
013D 12000000    R     LCALL   L?0111
0141 94F8              SUBB    A,#0F8H
0143 FE                MOV     R6,A
0144 12000000    R     LCALL   L?0067
0148 2492              ADD     A,#092H
014A 12000000    R     LCALL   L?0063
014E EE                MOV     A,R6
014F F0                MOVX    @DPTR,A
0150 A3                INC     DPTR
0151 EF                MOV     A,R7
0152 F0                MOVX    @DPTR,A
                                           ; SOURCE LINE # 197
0153 22                RET     
             ; FUNCTION stoe_BdpInit (END)

             ; FUNCTION _STOE_SetIPAddr (BEGIN)
                                           ; SOURCE LINE # 208
0000 90000000    R     MOV     DPTR,#ip
                                           ; SOURCE LINE # 209
                                           ; SOURCE LINE # 210
0004 12000000    R     LCALL   L?0068
0008 240C              ADD     A,#0CH
C51 COMPILER V8.06   STOE                                                                  03/10/2026 15:30:55 PAGE 61  

000A 12000000    R     LCALL   L?0063
000E 12000000    R     LCALL   L?0086
0012 90000000    R     MOV     DPTR,#ip
0016 12000000    R     LCALL   L?0087
001A C3                CLR     C
001B 12000000    E     LCALL   ?C?ULCMP
001F 601B              JZ      ?C0011
                                           ; SOURCE LINE # 211
                                           ; SOURCE LINE # 212
0021 90000000    R     MOV     DPTR,#ip
0025 12000000    R     LCALL   L?0072
0029 240C              ADD     A,#0CH
002B 12000000    R     LCALL   L?0063
002F 12000000    E     LCALL   ?C?LSTXDATA
                                           ; SOURCE LINE # 213
0033 EB                MOV     A,R3
0034 240C              ADD     A,#0CH
0036 7F10              MOV     R7,#010H
0038 12000000    R     LCALL   L?0099
                                           ; SOURCE LINE # 214
                                           ; SOURCE LINE # 216
003C         ?C0011:
003C 22                RET     
             ; FUNCTION _STOE_SetIPAddr (END)

             ; FUNCTION _STOE_SetSubnetMask (BEGIN)
                                           ; SOURCE LINE # 225
0000 90000000    R     MOV     DPTR,#subnet
                                           ; SOURCE LINE # 226
                                           ; SOURCE LINE # 227
0004 12000000    R     LCALL   L?0069
0008 2410              ADD     A,#010H
000A 12000000    R     LCALL   L?0063
000E 12000000    R     LCALL   L?0086
0012 90000000    R     MOV     DPTR,#subnet
0016 12000000    R     LCALL   L?0087
001A C3                CLR     C
001B 12000000    E     LCALL   ?C?ULCMP
001F 601B              JZ      ?C0013
                                           ; SOURCE LINE # 228
                                           ; SOURCE LINE # 229
0021 90000000    R     MOV     DPTR,#subnet
0025 12000000    R     LCALL   L?0072
0029 2410              ADD     A,#010H
002B 12000000    R     LCALL   L?0063
002F 12000000    E     LCALL   ?C?LSTXDATA
                                           ; SOURCE LINE # 230
0033 EB                MOV     A,R3
0034 2410              ADD     A,#010H
0036 7F14              MOV     R7,#014H
0038 12000000    R     LCALL   L?0099
                                           ; SOURCE LINE # 231
                                           ; SOURCE LINE # 233
003C         ?C0013:
003C 22                RET     
             ; FUNCTION _STOE_SetSubnetMask (END)

             ; FUNCTION _STOE_SetGateway (BEGIN)
                                           ; SOURCE LINE # 242
0000 90000000    R     MOV     DPTR,#gateway
                                           ; SOURCE LINE # 243
                                           ; SOURCE LINE # 244
C51 COMPILER V8.06   STOE                                                                  03/10/2026 15:30:55 PAGE 62  

0004 12000000    R     LCALL   L?0069
0008 2414              ADD     A,#014H
000A 12000000    R     LCALL   L?0063
000E 12000000    R     LCALL   L?0086
0012 FF                MOV     R7,A
0013 90000000    R     MOV     DPTR,#gateway
0017 12000000    R     LCALL   L?0088
001B C3                CLR     C
001C 12000000    E     LCALL   ?C?ULCMP
0020 6025              JZ      ?C0015
                                           ; SOURCE LINE # 245
                                           ; SOURCE LINE # 246
0022 90000000    R     MOV     DPTR,#gateway
0026 12000000    R     LCALL   L?0073
002A 2414              ADD     A,#014H
002C 12000000    R     LCALL   L?0063
0030 12000000    E     LCALL   ?C?LSTXDATA
                                           ; SOURCE LINE # 248
0034 EB                MOV     A,R3
0035 2414              ADD     A,#014H
0037 FD                MOV     R5,A
0038 E4                CLR     A
0039 3A                ADDC    A,R2
003A FC                MOV     R4,A
003B 7B04              MOV     R3,#04H
003D 7F18              MOV     R7,#018H
003F 12000000    R     LCALL   _stoe_WriteReg
                                           ; SOURCE LINE # 249
0043 12000000    E     LCALL   ETH_RestartSendArpToGateway
                                           ; SOURCE LINE # 250
                                           ; SOURCE LINE # 252
0047         ?C0015:
0047 22                RET     
             ; FUNCTION _STOE_SetGateway (END)

             ; FUNCTION STOE_Start (BEGIN)
                                           ; SOURCE LINE # 263
                                           ; SOURCE LINE # 264
                                           ; SOURCE LINE # 268
0000 7C00        R     MOV     R4,#HIGH temp
0002 7D00        R     MOV     R5,#LOW temp
0004 12000000    R     LCALL   L?0108
                                           ; SOURCE LINE # 270
0008 12000000    R     LCALL   stoe_StartOperate
                                           ; SOURCE LINE # 272
000C 12000000    E     LCALL   DMA_Start
                                           ; SOURCE LINE # 274
0010 12000000    E     LCALL   MAC_Start
                                           ; SOURCE LINE # 275
0014 D2EA              SETB    EINT4
                                           ; SOURCE LINE # 276
0016 22                RET     
             ; FUNCTION STOE_Start (END)

             ; FUNCTION STOE_ProcessInterrupt (BEGIN)
                                           ; SOURCE LINE # 286
                                           ; SOURCE LINE # 287
0000         ?C0017:
                                           ; SOURCE LINE # 291
                                           ; SOURCE LINE # 292
                                           ; SOURCE LINE # 294
0000 7C00        R     MOV     R4,#HIGH int_status
C51 COMPILER V8.06   STOE                                                                  03/10/2026 15:30:55 PAGE 63  

0002 7D00        R     MOV     R5,#LOW int_status
0004 12000000    R     LCALL   L?0108
                                           ; SOURCE LINE # 295
0008 90000000    R     MOV     DPTR,#int_status
000C E0                MOVX    A,@DPTR
000D 5406              ANL     A,#06H
000F F0                MOVX    @DPTR,A
                                           ; SOURCE LINE # 297
0010 E0                MOVX    A,@DPTR
0011 FF                MOV     R7,A
0012 603A              JZ      ?C0024
                                           ; SOURCE LINE # 298
0014         ?C0019:
                                           ; SOURCE LINE # 300
0014 EF                MOV     A,R7
0015 30E11A            JNB     ACC.1,?C0020
                                           ; SOURCE LINE # 301
0018         ?C0021:
                                           ; SOURCE LINE # 302
0018 90000000    R     MOV     DPTR,#PBDP
001C E0                MOVX    A,@DPTR
001D FE                MOV     R6,A
001E A3                INC     DPTR
001F E0                MOVX    A,@DPTR
0020 8E83              MOV     DPH,R6
0022 12000000    R     LCALL   L?0061
0026 E0                MOVX    A,@DPTR
0027 C3                CLR     C
0028 9410              SUBB    A,#010H
002A 5006              JNC     ?C0020
                                           ; SOURCE LINE # 303
002C 12000000    R     LCALL   stoe_RcvHandle
0030 80E6              SJMP    ?C0021
                                           ; SOURCE LINE # 304
0032         ?C0020:
                                           ; SOURCE LINE # 305
0032 90000000    R     MOV     DPTR,#int_status
0036 E0                MOVX    A,@DPTR
0037 30E2C6            JNB     ACC.2,?C0017
                                           ; SOURCE LINE # 306
                                           ; SOURCE LINE # 308
003A 90000000    R     MOV     DPTR,#temp
003E 7401              MOV     A,#01H
0040 F0                MOVX    @DPTR,A
                                           ; SOURCE LINE # 309
0041 7C00        R     MOV     R4,#HIGH temp
0043 7D00        R     MOV     R5,#LOW temp
0045 FB                MOV     R3,A
0046 7F21              MOV     R7,#021H
0048 12000000    R     LCALL   _stoe_WriteReg
                                           ; SOURCE LINE # 310
                                           ; SOURCE LINE # 311
004C 80B2              SJMP    ?C0017
                                           ; SOURCE LINE # 312
004E         ?C0024:
004E 22                RET     
             ; FUNCTION STOE_ProcessInterrupt (END)

             ; FUNCTION STOE_WaitHwReleaseRcvBuf (BEGIN)
                                           ; SOURCE LINE # 321
                                           ; SOURCE LINE # 322
                                           ; SOURCE LINE # 326
C51 COMPILER V8.06   STOE                                                                  03/10/2026 15:30:55 PAGE 64  

;---- Variable 'isr' assigned to Register 'R7' ----
                                           ; SOURCE LINE # 327
                                           ; SOURCE LINE # 328
0000 12000000    R     LCALL   L?0092
0004 FD                MOV     R5,A
0005 12000000    R     LCALL   L?0060
0009 E0                MOVX    A,@DPTR
000A C3                CLR     C
000B 9410              SUBB    A,#010H
000D 5007              JNC     ?C0025
                                           ; SOURCE LINE # 329
                                           ; SOURCE LINE # 330
                                           ; SOURCE LINE # 331
000F 12000000    R     LCALL   L?0059
0013 7410              MOV     A,#010H
0015 F0                MOVX    @DPTR,A
                                           ; SOURCE LINE # 332
0016         ?C0025:
                                           ; SOURCE LINE # 333
0016 EF                MOV     A,R7
0017 24FF              ADD     A,#0FFH
0019 92AF              MOV     EA,C
                                           ; SOURCE LINE # 335
001B 90000000    R     MOV     DPTR,#temp
001F 7401              MOV     A,#01H
0021 F0                MOVX    @DPTR,A
                                           ; SOURCE LINE # 336
0022 7C00        R     MOV     R4,#HIGH temp
0024 7D00        R     MOV     R5,#LOW temp
0026 FB                MOV     R3,A
0027 7F21              MOV     R7,#021H
0029 12000000    R     LCALL   _stoe_WriteReg
                                           ; SOURCE LINE # 338
                                           ; SOURCE LINE # 340
                                           ; SOURCE LINE # 341
002D 8019              SJMP    ?C0055
002F         ?C0026:
                                           ; SOURCE LINE # 342
002F 12000000    R     LCALL   L?0093
0033 FD                MOV     R5,A
0034 12000000    R     LCALL   L?0060
0038 E0                MOVX    A,@DPTR
0039 C3                CLR     C
003A 9410              SUBB    A,#010H
003C 501B              JNC     ?C0027
                                           ; SOURCE LINE # 343
                                           ; SOURCE LINE # 344
                                           ; SOURCE LINE # 345
003E 12000000    R     LCALL   L?0059
0042 7410              MOV     A,#010H
                                           ; SOURCE LINE # 346
0044 12000000    R     LCALL   L?0112
                                           ; SOURCE LINE # 348
0048         ?C0055:
0048 7FE8              MOV     R7,#0E8H
004A 7E03              MOV     R6,#03H
004C 12000000    E     LCALL   _DELAY_Us
                                           ; SOURCE LINE # 350
0050 A2AF              MOV     C,EA
0052 E4                CLR     A
0053 33                RLC     A
0054 FF                MOV     R7,A
C51 COMPILER V8.06   STOE                                                                  03/10/2026 15:30:55 PAGE 65  

                                           ; SOURCE LINE # 351
0055 C2AF              CLR     EA
                                           ; SOURCE LINE # 352
0057 80D6              SJMP    ?C0026
0059         ?C0027:
                                           ; SOURCE LINE # 353
0059 EF                MOV     A,R7
005A 24FF              ADD     A,#0FFH
005C 92AF              MOV     EA,C
                                           ; SOURCE LINE # 355
005E 22                RET     
             ; FUNCTION STOE_WaitHwReleaseRcvBuf (END)

             ; FUNCTION stoe_StartOperate (BEGIN)
                                           ; SOURCE LINE # 364
                                           ; SOURCE LINE # 365
                                           ; SOURCE LINE # 368
0000 7C00        R     MOV     R4,#HIGH temp
0002 7D00        R     MOV     R5,#LOW temp
0004 7B01              MOV     R3,#01H
0006 E4                CLR     A
0007 FF                MOV     R7,A
0008 12000000    R     LCALL   _stoe_ReadReg
                                           ; SOURCE LINE # 370
000C 90000000    R     MOV     DPTR,#temp
0010 E0                MOVX    A,@DPTR
0011 4488              ORL     A,#088H
0013 F0                MOVX    @DPTR,A
                                           ; SOURCE LINE # 371
0014 7B01              MOV     R3,#01H
0016 E4                CLR     A
0017 FF                MOV     R7,A
0018 02000000    R     LJMP    _stoe_WriteReg
             ; FUNCTION stoe_StartOperate (END)

             ; FUNCTION stoe_StopOperate (BEGIN)
                                           ; SOURCE LINE # 384
                                           ; SOURCE LINE # 385
                                           ; SOURCE LINE # 388
0000 7C00        R     MOV     R4,#HIGH temp
0002 7D00        R     MOV     R5,#LOW temp
0004 7B01              MOV     R3,#01H
0006 E4                CLR     A
0007 FF                MOV     R7,A
0008 12000000    R     LCALL   _stoe_ReadReg
                                           ; SOURCE LINE # 390
000C 90000000    R     MOV     DPTR,#temp
0010 E0                MOVX    A,@DPTR
0011 5477              ANL     A,#077H
0013 F0                MOVX    @DPTR,A
                                           ; SOURCE LINE # 391
0014 7B01              MOV     R3,#01H
0016 E4                CLR     A
0017 FF                MOV     R7,A
0018 02000000    R     LJMP    _stoe_WriteReg
             ; FUNCTION stoe_StopOperate (END)

             ; FUNCTION stoe_RcvHandle (BEGIN)
                                           ; SOURCE LINE # 403
                                           ; SOURCE LINE # 404
                                           ; SOURCE LINE # 409
0000 12000000    R     LCALL   L?0081
C51 COMPILER V8.06   STOE                                                                  03/10/2026 15:30:55 PAGE 66  

0004 2406              ADD     A,#06H
0006 12000000    R     LCALL   L?0063
000A A3                INC     DPTR
000B E0                MOVX    A,@DPTR
000C 90000000    R     MOV     DPTR,#pframe
0010 F0                MOVX    @DPTR,A
0011 A3                INC     DPTR
0012 E4                CLR     A
0013 F0                MOVX    @DPTR,A
                                           ; SOURCE LINE # 410
0014 90000000    R     MOV     DPTR,#pframe
0018 E0                MOVX    A,@DPTR
0019 FE                MOV     R6,A
001A A3                INC     DPTR
001B E0                MOVX    A,@DPTR
001C FF                MOV     R7,A
001D F582              MOV     DPL,A
001F 8E83              MOV     DPH,R6
0021 759300      E     MOV     DPX,#?C?XDATASEG
0024 A3                INC     DPTR
0025 A3                INC     DPTR
0026 E0                MOVX    A,@DPTR
0027 540F              ANL     A,#0FH
0029 FB                MOV     R3,A
002A A3                INC     DPTR
002B E0                MOVX    A,@DPTR
002C 90000000    R     MOV     DPTR,#length
0030 CB                XCH     A,R3
0031 F0                MOVX    @DPTR,A
0032 A3                INC     DPTR
0033 EB                MOV     A,R3
0034 F0                MOVX    @DPTR,A
                                           ; SOURCE LINE # 412
0035 12000000    R     LCALL   L?0097
0039 2404              ADD     A,#04H
003B 12000000    R     LCALL   L?0063
003F 12000000    R     LCALL   L?0082
0043 24B9              ADD     A,#0B9H
0045 12000000    R     LCALL   L?0063
0049 EF                MOV     A,R7
004A F0                MOVX    @DPTR,A
                                           ; SOURCE LINE # 413
004B 90000000    R     MOV     DPTR,#length
004F 12000000    R     LCALL   L?0079
0053 24B1              ADD     A,#0B1H
0055 12000000    R     LCALL   L?0063
0059 EE                MOV     A,R6
005A F0                MOVX    @DPTR,A
005B A3                INC     DPTR
005C EF                MOV     A,R7
005D F0                MOVX    @DPTR,A
                                           ; SOURCE LINE # 414
005E 90000000    R     MOV     DPTR,#pframe+01H
0062 E0                MOVX    A,@DPTR
0063 2406              ADD     A,#06H
0065 FB                MOV     R3,A
0066 90000000    R     MOV     DPTR,#pframe
006A E0                MOVX    A,@DPTR
006B 3400              ADDC    A,#00H
006D FA                MOV     R2,A
006E 12000000    R     LCALL   L?0084
0072 24A9              ADD     A,#0A9H
C51 COMPILER V8.06   STOE                                                                  03/10/2026 15:30:55 PAGE 67  

0074 12000000    R     LCALL   L?0063
0078 EA                MOV     A,R2
0079 F0                MOVX    @DPTR,A
007A A3                INC     DPTR
007B EB                MOV     A,R3
007C F0                MOVX    @DPTR,A
                                           ; SOURCE LINE # 416
007D EF                MOV     A,R7
007E 4E                ORL     A,R6
007F 6040              JZ      ?C0031
0081 12000000    R     LCALL   L?0103
0085 F9                MOV     R1,A
0086 EA                MOV     A,R2
0087 49                ORL     A,R1
0088 4B                ORL     A,R3
0089 6036              JZ      ?C0031
                                           ; SOURCE LINE # 417
008B 90000000    R     MOV     DPTR,#pframe
008F E0                MOVX    A,@DPTR
0090 FA                MOV     R2,A
0091 A3                INC     DPTR
0092 E0                MOVX    A,@DPTR
0093 FB                MOV     R3,A
0094 2406              ADD     A,#06H
0096 FF                MOV     R7,A
0097 E4                CLR     A
0098 3A                ADDC    A,R2
0099 FE                MOV     R6,A
009A 90000000    R     MOV     DPTR,#length
009E E0                MOVX    A,@DPTR
009F FC                MOV     R4,A
00A0 A3                INC     DPTR
00A1 E0                MOVX    A,@DPTR
00A2 FD                MOV     R5,A
00A3 12000000    R     LCALL   L?0067
00A7 2404              ADD     A,#04H
00A9 12000000    R     LCALL   L?0063
00AD E0                MOVX    A,@DPTR
00AE FB                MOV     R3,A
00AF C003              PUSH    AR3
00B1 12000000    R     LCALL   L?0103
00B5 F582              MOV     DPL,A
00B7 8A83              MOV     DPH,R2
00B9 8B93              MOV     DPX,R3
00BB D003              POP     AR3
00BD 12000000    E     LCALL   ?C?ICALLX2
00C1         ?C0031:
                                           ; SOURCE LINE # 419
00C1 90000000    R     MOV     DPTR,#pframe
00C5 E0                MOVX    A,@DPTR
00C6 FE                MOV     R6,A
00C7 A3                INC     DPTR
00C8 E0                MOVX    A,@DPTR
00C9 F582              MOV     DPL,A
00CB 8E83              MOV     DPH,R6
00CD 759300      E     MOV     DPX,#?C?XDATASEG
00D0 12000000    R     LCALL   L?0079
00D4 2406              ADD     A,#06H
00D6 12000000    R     LCALL   L?0063
00DA E0                MOVX    A,@DPTR
00DB FA                MOV     R2,A
00DC A3                INC     DPTR
C51 COMPILER V8.06   STOE                                                                  03/10/2026 15:30:55 PAGE 68  

00DD E0                MOVX    A,@DPTR
00DE D3                SETB    C
00DF 9F                SUBB    A,R7
00E0 EA                MOV     A,R2
00E1 9E                SUBB    A,R6
00E2 403E              JC      ?C0032
                                           ; SOURCE LINE # 420
00E4 12000000    R     LCALL   L?0110
00E8 A3                INC     DPTR
00E9 E0                MOVX    A,@DPTR
00EA FF                MOV     R7,A
00EB 90000000    R     MOV     DPTR,#pframe
00EF E0                MOVX    A,@DPTR
00F0 FA                MOV     R2,A
00F1 A3                INC     DPTR
00F2 E0                MOVX    A,@DPTR
00F3 F582              MOV     DPL,A
00F5 8A83              MOV     DPH,R2
00F7 759300      E     MOV     DPX,#?C?XDATASEG
00FA A3                INC     DPTR
00FB E0                MOVX    A,@DPTR
00FC 9F                SUBB    A,R7
00FD 12000000    R     LCALL   L?0083
0101 2406              ADD     A,#06H
0103 12000000    R     LCALL   L?0063
0107 A3                INC     DPTR
0108 E0                MOVX    A,@DPTR
0109 FE                MOV     R6,A
010A 90000000    R     MOV     DPTR,#PBDP
010E A3                INC     DPTR
010F E0                MOVX    A,@DPTR
0110 8C83              MOV     DPH,R4
0112 759300      E     MOV     DPX,#?C?XDATASEG
0115 2480              ADD     A,#080H
0117 12000000    R     LCALL   L?0063
011B A3                INC     DPTR
011C E0                MOVX    A,@DPTR
011D C3                CLR     C
011E 9E                SUBB    A,R6
011F 2F                ADD     A,R7
0120 8019              SJMP    ?C0056
0122         ?C0032:
                                           ; SOURCE LINE # 422
0122 90000000    R     MOV     DPTR,#PBDP
0126 12000000    R     LCALL   L?0071
012A 2406              ADD     A,#06H
012C 12000000    R     LCALL   L?0063
0130 A3                INC     DPTR
0131 E0                MOVX    A,@DPTR
0132 FF                MOV     R7,A
0133 12000000    R     LCALL   L?0089
0137 A3                INC     DPTR
0138 E0                MOVX    A,@DPTR
0139 C3                CLR     C
013A 9F                SUBB    A,R7
013B         ?C0056:
013B 90000000    R     MOV     DPTR,#pages
013F F0                MOVX    @DPTR,A
0140         ?C0033:
                                           ; SOURCE LINE # 424
0140 A2AF              MOV     C,EA
0142 E4                CLR     A
C51 COMPILER V8.06   STOE                                                                  03/10/2026 15:30:55 PAGE 69  

0143 33                RLC     A
0144 FF                MOV     R7,A
;---- Variable 'isr' assigned to Register 'R7' ----
                                           ; SOURCE LINE # 425
0145 C2AF              CLR     EA
                                           ; SOURCE LINE # 426
0147 12000000    R     LCALL   L?0089
014B E0                MOVX    A,@DPTR
014C FC                MOV     R4,A
014D A3                INC     DPTR
014E E0                MOVX    A,@DPTR
014F FD                MOV     R5,A
0150 90000000    R     MOV     DPTR,#PBDP
0154 12000000    R     LCALL   L?0076
0158 2406              ADD     A,#06H
015A 12000000    R     LCALL   L?0063
015E EC                MOV     A,R4
015F F0                MOVX    @DPTR,A
0160 A3                INC     DPTR
0161 ED                MOV     A,R5
0162 F0                MOVX    @DPTR,A
                                           ; SOURCE LINE # 427
0163 90000000    R     MOV     DPTR,#pages
0167 E0                MOVX    A,@DPTR
0168 FE                MOV     R6,A
0169 12000000    R     LCALL   L?0067
016D 12000000    R     LCALL   L?0062
0171 E0                MOVX    A,@DPTR
0172 2E                ADD     A,R6
                                           ; SOURCE LINE # 428
0173 12000000    R     LCALL   L?0112
                                           ; SOURCE LINE # 430
0177 22                RET     
             ; FUNCTION stoe_RcvHandle (END)

             ; FUNCTION stoe_XmitHandle (BEGIN)
                                           ; SOURCE LINE # 439
                                           ; SOURCE LINE # 440
                                           ; SOURCE LINE # 443
0000 8008              SJMP    ?C0057
0002         ?C0035:
                                           ; SOURCE LINE # 444
0002 90000000    R     MOV     DPTR,#temp
0006 E0                MOVX    A,@DPTR
0007 30E40C            JNB     ACC.4,?C0036
                                           ; SOURCE LINE # 445
000A         ?C0057:
000A 7C00        R     MOV     R4,#HIGH temp
000C 7D00        R     MOV     R5,#LOW temp
000E 7F21              MOV     R7,#021H
0010 12000000    R     LCALL   L?0109
0014 80EC              SJMP    ?C0035
0016         ?C0036:
                                           ; SOURCE LINE # 447
0016 90000000    R     MOV     DPTR,#temp
001A 7410              MOV     A,#010H
001C F0                MOVX    @DPTR,A
                                           ; SOURCE LINE # 448
001D 7C00        R     MOV     R4,#HIGH temp
001F 7D00        R     MOV     R5,#LOW temp
0021 7B01              MOV     R3,#01H
0023 7F21              MOV     R7,#021H
C51 COMPILER V8.06   STOE                                                                  03/10/2026 15:30:55 PAGE 70  

0025 02000000    R     LJMP    _stoe_WriteReg
             ; FUNCTION stoe_XmitHandle (END)

             ; FUNCTION _STOE_Send (BEGIN)
                                           ; SOURCE LINE # 462
;---- Variable 'pbuf' assigned to Register 'R6/R7' ----
;---- Variable 'protocol' assigned to Register 'R3' ----
;---- Variable 'length' assigned to Register 'R4/R5' ----
                                           ; SOURCE LINE # 463
                                           ; SOURCE LINE # 464
0000 90000000    R     MOV     DPTR,#pframe
0004 EE                MOV     A,R6
0005 F0                MOVX    @DPTR,A
0006 A3                INC     DPTR
0007 EF                MOV     A,R7
0008 F0                MOVX    @DPTR,A
                                           ; SOURCE LINE # 465
0009 90000000    R     MOV     DPTR,#PBDP
000D 12000000    R     LCALL   L?0071
0011 24A8              ADD     A,#0A8H
0013 12000000    R     LCALL   L?0063
0017 E0                MOVX    A,@DPTR
0018 90000000    R     MOV     DPTR,#occupypages
001C F0                MOVX    @DPTR,A
                                           ; SOURCE LINE # 468
001D AE04              MOV     R6,AR4
001F AF05              MOV     R7,AR5
0021 90000000    R     MOV     DPTR,#pframe
0025 E0                MOVX    A,@DPTR
0026 FC                MOV     R4,A
0027 A3                INC     DPTR
0028 E0                MOVX    A,@DPTR
0029 FD                MOV     R5,A
002A 12000000    R     LCALL   L?0091
002E A3                INC     DPTR
002F A3                INC     DPTR
0030 EE                MOV     A,R6
0031 F0                MOVX    @DPTR,A
0032 A3                INC     DPTR
0033 EF                MOV     A,R7
0034 F0                MOVX    @DPTR,A
                                           ; SOURCE LINE # 469
0035 AF03              MOV     R7,AR3
0037 12000000    R     LCALL   L?0084
003B 2404              ADD     A,#04H
003D 12000000    R     LCALL   L?0063
0041 EF                MOV     A,R7
0042 F0                MOVX    @DPTR,A
                                           ; SOURCE LINE # 471
;---- Variable 'isr' assigned to Register 'R7' ----
                                           ; SOURCE LINE # 472
                                           ; SOURCE LINE # 473
0043 12000000    R     LCALL   L?0092
0047 8C83              MOV     DPH,R4
0049 759300      E     MOV     DPX,#?C?XDATASEG
004C 2488              ADD     A,#088H
004E 12000000    R     LCALL   L?0106
0052 C083              PUSH    DPH
0054 C082              PUSH    DPL
0056 759300      E     MOV     DPX,#?C?XDATASEG
0059 E0                MOVX    A,@DPTR
005A FE                MOV     R6,A
C51 COMPILER V8.06   STOE                                                                  03/10/2026 15:30:55 PAGE 71  

005B 90000000    R     MOV     DPTR,#occupypages
005F E0                MOVX    A,@DPTR
0060 FD                MOV     R5,A
0061 C3                CLR     C
0062 EE                MOV     A,R6
0063 9D                SUBB    A,R5
0064 759300      E     MOV     DPX,#?C?XDATASEG
0067 D082              POP     DPL
0069 D083              POP     DPH
                                           ; SOURCE LINE # 474
006B 12000000    R     LCALL   L?0113
                                           ; SOURCE LINE # 476
006F ED                MOV     A,R5
0070 12000000    R     LCALL   L?0080
0074 2486              ADD     A,#086H
0076 12000000    R     LCALL   L?0063
007A E4                CLR     A
007B 8FF0              MOV     B,R7
007D 12000000    E     LCALL   ?C?IILDX
                                           ; SOURCE LINE # 477
0081 12000000    R     LCALL   L?0084
0085 2482              ADD     A,#082H
0087 12000000    R     LCALL   L?0063
008B E0                MOVX    A,@DPTR
008C FE                MOV     R6,A
008D A3                INC     DPTR
008E 12000000    R     LCALL   L?0082
0092 2486              ADD     A,#086H
0094 12000000    R     LCALL   L?0063
0098 E0                MOVX    A,@DPTR
0099 FC                MOV     R4,A
009A A3                INC     DPTR
009B E0                MOVX    A,@DPTR
009C D3                SETB    C
009D 9F                SUBB    A,R7
009E EC                MOV     A,R4
009F 9E                SUBB    A,R6
00A0 4052              JC      ?C0038
                                           ; SOURCE LINE # 478
00A2 90000000    R     MOV     DPTR,#PBDP
00A6 12000000    R     LCALL   L?0095
00AA 2486              ADD     A,#086H
00AC 12000000    R     LCALL   L?0063
00B0 E0                MOVX    A,@DPTR
00B1 FC                MOV     R4,A
00B2 A3                INC     DPTR
00B3 E0                MOVX    A,@DPTR
00B4 FD                MOV     R5,A
00B5 12000000    R     LCALL   L?0097
00B9 2480              ADD     A,#080H
00BB 12000000    R     LCALL   L?0063
00BF E0                MOVX    A,@DPTR
00C0 FE                MOV     R6,A
00C1 A3                INC     DPTR
00C2 E0                MOVX    A,@DPTR
00C3 2D                ADD     A,R5
00C4 FF                MOV     R7,A
00C5 EE                MOV     A,R6
00C6 3C                ADDC    A,R4
00C7 FE                MOV     R6,A
00C8 12000000    R     LCALL   L?0081
00CC 2482              ADD     A,#082H
C51 COMPILER V8.06   STOE                                                                  03/10/2026 15:30:55 PAGE 72  

00CE 12000000    R     LCALL   L?0063
00D2 E0                MOVX    A,@DPTR
00D3 FA                MOV     R2,A
00D4 A3                INC     DPTR
00D5 E0                MOVX    A,@DPTR
00D6 FB                MOV     R3,A
00D7 C3                CLR     C
00D8 EF                MOV     A,R7
00D9 9B                SUBB    A,R3
00DA FF                MOV     R7,A
00DB EE                MOV     A,R6
00DC 9A                SUBB    A,R2
00DD CF                XCH     A,R7
00DE C3                CLR     C
00DF 9401              SUBB    A,#01H
00E1 CF                XCH     A,R7
00E2 9400              SUBB    A,#00H
00E4 FE                MOV     R6,A
00E5 12000000    R     LCALL   L?0084
00E9 2486              ADD     A,#086H
00EB 12000000    R     LCALL   L?0063
00EF EE                MOV     A,R6
00F0 F0                MOVX    @DPTR,A
00F1 A3                INC     DPTR
00F2 EF                MOV     A,R7
00F3 F0                MOVX    @DPTR,A
00F4         ?C0038:
                                           ; SOURCE LINE # 480
00F4 90000000    R     MOV     DPTR,#PBDP
00F8 12000000    R     LCALL   L?0071
00FC 2486              ADD     A,#086H
00FE 12000000    R     LCALL   L?0063
0102 E0                MOVX    A,@DPTR
0103 FE                MOV     R6,A
0104 A3                INC     DPTR
0105 E0                MOVX    A,@DPTR
0106 FF                MOV     R7,A
0107 90000000    R     MOV     DPTR,#pframe
010B 12000000    R     LCALL   L?0090
010F EE                MOV     A,R6
0110 F0                MOVX    @DPTR,A
0111 A3                INC     DPTR
0112 EF                MOV     A,R7
0113 F0                MOVX    @DPTR,A
                                           ; SOURCE LINE # 482
0114 02000000    R     LJMP    stoe_XmitHandle
             ; FUNCTION _STOE_Send (END)

             ; FUNCTION _STOE_AssignSendBuf (BEGIN)
                                           ; SOURCE LINE # 495
;---- Variable 'length' assigned to Register 'R6/R7' ----
                                           ; SOURCE LINE # 496
                                           ; SOURCE LINE # 500
0000 EF                MOV     A,R7
0001 24FF              ADD     A,#0FFH
0003 E4                CLR     A
0004 3E                ADDC    A,R6
;---- Variable 'occupypages' assigned to Register 'R5' ----
0005 FD                MOV     R5,A
                                           ; SOURCE LINE # 502
0006 90000000    R     MOV     DPTR,#PBDP
000A 12000000    R     LCALL   L?0071
C51 COMPILER V8.06   STOE                                                                  03/10/2026 15:30:55 PAGE 73  

000E 2488              ADD     A,#088H
0010 12000000    R     LCALL   L?0063
0014 E0                MOVX    A,@DPTR
0015 D3                SETB    C
0016 9D                SUBB    A,R5
0017 5004              JNC     ?C0040
                                           ; SOURCE LINE # 503
0019 E4                CLR     A
001A FE                MOV     R6,A
001B FF                MOV     R7,A
001C 22                RET     
001D         ?C0040:
                                           ; SOURCE LINE # 505
001D 90000000    R     MOV     DPTR,#PBDP
0021 12000000    R     LCALL   L?0071
0025 2486              ADD     A,#086H
0027 12000000    R     LCALL   L?0063
002B A3                INC     DPTR
002C E0                MOVX    A,@DPTR
002D 7F00              MOV     R7,#00H
002F FE                MOV     R6,A
;---- Variable 'pframe' assigned to Register 'R6/R7' ----
                                           ; SOURCE LINE # 506
0030 90000000    R     MOV     DPTR,#PBDP
0034 E0                MOVX    A,@DPTR
0035 FA                MOV     R2,A
0036 A3                INC     DPTR
0037 E0                MOVX    A,@DPTR
0038 8A83              MOV     DPH,R2
003A 759300      E     MOV     DPX,#?C?XDATASEG
003D 24A8              ADD     A,#0A8H
003F 12000000    R     LCALL   L?0063
0043 ED                MOV     A,R5
0044 F0                MOVX    @DPTR,A
                                           ; SOURCE LINE # 508
                                           ; SOURCE LINE # 510
0045         ?C0041:
0045 22                RET     
             ; FUNCTION _STOE_AssignSendBuf (END)

             ; FUNCTION _STOE_CopyCode2TPBR (BEGIN)
                                           ; SOURCE LINE # 522
0000 90000000    R     MOV     DPTR,#psour
0004 EB                MOV     A,R3
0005 F0                MOVX    @DPTR,A
0006 A3                INC     DPTR
0007 EA                MOV     A,R2
0008 F0                MOVX    @DPTR,A
0009 A3                INC     DPTR
000A E9                MOV     A,R1
000B F0                MOVX    @DPTR,A
000C 90000000    R     MOV     DPTR,#pdest
0010 EE                MOV     A,R6
0011 F0                MOVX    @DPTR,A
0012 A3                INC     DPTR
0013 EF                MOV     A,R7
0014 F0                MOVX    @DPTR,A
                                           ; SOURCE LINE # 523
                                           ; SOURCE LINE # 527
0015 12000000    R     LCALL   L?0081
0019 2492              ADD     A,#092H
001B 12000000    R     LCALL   L?0063
C51 COMPILER V8.06   STOE                                                                  03/10/2026 15:30:55 PAGE 74  

001F E0                MOVX    A,@DPTR
0020 FA                MOV     R2,A
0021 A3                INC     DPTR
0022 E0                MOVX    A,@DPTR
0023 C3                CLR     C
0024 9F                SUBB    A,R7
0025 EA                MOV     A,R2
0026 9E                SUBB    A,R6
0027 401E              JC      ?C0043
0029 12000000    R     LCALL   L?0084
002D 2490              ADD     A,#090H
002F 12000000    R     LCALL   L?0063
0033 E0                MOVX    A,@DPTR
0034 FE                MOV     R6,A
0035 A3                INC     DPTR
0036 E0                MOVX    A,@DPTR
0037 FF                MOV     R7,A
0038 90000000    R     MOV     DPTR,#pdest
003C E0                MOVX    A,@DPTR
003D FC                MOV     R4,A
003E A3                INC     DPTR
003F E0                MOVX    A,@DPTR
0040 FD                MOV     R5,A
0041 C3                CLR     C
0042 9F                SUBB    A,R7
0043 EC                MOV     A,R4
0044 9E                SUBB    A,R6
0045 5004              JNC     ?C0042
0047         ?C0043:
                                           ; SOURCE LINE # 528
0047 E4                CLR     A
0048 FE                MOV     R6,A
0049 FF                MOV     R7,A
004A 22                RET     
004B         ?C0042:
                                           ; SOURCE LINE # 530
004B 90000000    R     MOV     DPTR,#PBDP
004F 12000000    R     LCALL   L?0071
0053 2492              ADD     A,#092H
0055 12000000    R     LCALL   L?0063
0059 E0                MOVX    A,@DPTR
005A FE                MOV     R6,A
005B A3                INC     DPTR
005C E0                MOVX    A,@DPTR
005D C3                CLR     C
005E 9D                SUBB    A,R5
005F FF                MOV     R7,A
0060 EE                MOV     A,R6
0061 9C                SUBB    A,R4
0062 CF                XCH     A,R7
0063 2401              ADD     A,#01H
0065 CF                XCH     A,R7
0066 3400              ADDC    A,#00H
0068 FE                MOV     R6,A
0069 90000000    R     MOV     DPTR,#space
006D F0                MOVX    @DPTR,A
006E A3                INC     DPTR
006F EF                MOV     A,R7
0070 F0                MOVX    @DPTR,A
                                           ; SOURCE LINE # 531
0071 C3                CLR     C
0072 90000000    R     MOV     DPTR,#length+01H
C51 COMPILER V8.06   STOE                                                                  03/10/2026 15:30:55 PAGE 75  

0076 E0                MOVX    A,@DPTR
0077 9F                SUBB    A,R7
0078 90000000    R     MOV     DPTR,#length
007C E0                MOVX    A,@DPTR
007D 9E                SUBB    A,R6
007E 5010              JNC     ?C0045
                                           ; SOURCE LINE # 532
0080         ?C0046:
                                           ; SOURCE LINE # 533
0080 90000000    R     MOV     DPTR,#length
0084 12000000    R     LCALL   L?0100
0088 6060              JZ      ?C0048
                                           ; SOURCE LINE # 534
008A 12000000    R     LCALL   L?0077
008E 80F0              SJMP    ?C0046
                                           ; SOURCE LINE # 535
0090         ?C0045:
                                           ; SOURCE LINE # 537
                                           ; SOURCE LINE # 538
0090 90000000    R     MOV     DPTR,#space
0094 E0                MOVX    A,@DPTR
0095 FE                MOV     R6,A
0096 A3                INC     DPTR
0097 E0                MOVX    A,@DPTR
0098 FF                MOV     R7,A
0099 C3                CLR     C
009A 90000000    R     MOV     DPTR,#length+01H
009E E0                MOVX    A,@DPTR
009F 9F                SUBB    A,R7
00A0 FF                MOV     R7,A
00A1 90000000    R     MOV     DPTR,#length
00A5 E0                MOVX    A,@DPTR
00A6 9E                SUBB    A,R6
00A7 90000000    R     MOV     DPTR,#leftlen
00AB F0                MOVX    @DPTR,A
00AC A3                INC     DPTR
00AD EF                MOV     A,R7
00AE F0                MOVX    @DPTR,A
00AF         ?C0049:
                                           ; SOURCE LINE # 540
00AF 90000000    R     MOV     DPTR,#space
00B3 12000000    R     LCALL   L?0100
00B7 6006              JZ      ?C0050
                                           ; SOURCE LINE # 541
00B9 12000000    R     LCALL   L?0077
00BD 80F0              SJMP    ?C0049
00BF         ?C0050:
                                           ; SOURCE LINE # 543
00BF 90000000    R     MOV     DPTR,#PBDP
00C3 12000000    R     LCALL   L?0071
00C7 2490              ADD     A,#090H
00C9 12000000    R     LCALL   L?0063
00CD E0                MOVX    A,@DPTR
00CE FF                MOV     R7,A
00CF A3                INC     DPTR
00D0 E0                MOVX    A,@DPTR
00D1 90000000    R     MOV     DPTR,#pdest
00D5 CF                XCH     A,R7
00D6 F0                MOVX    @DPTR,A
00D7 A3                INC     DPTR
00D8 EF                MOV     A,R7
00D9 F0                MOVX    @DPTR,A
C51 COMPILER V8.06   STOE                                                                  03/10/2026 15:30:55 PAGE 76  

00DA         ?C0051:
                                           ; SOURCE LINE # 545
00DA 90000000    R     MOV     DPTR,#leftlen
00DE 12000000    R     LCALL   L?0101
00E2 6006              JZ      ?C0048
                                           ; SOURCE LINE # 546
00E4 12000000    R     LCALL   L?0078
00E8 80F0              SJMP    ?C0051
                                           ; SOURCE LINE # 547
00EA         ?C0048:
                                           ; SOURCE LINE # 549
00EA 90000000    R     MOV     DPTR,#pdest
00EE E0                MOVX    A,@DPTR
00EF FE                MOV     R6,A
00F0 A3                INC     DPTR
00F1 E0                MOVX    A,@DPTR
00F2 FF                MOV     R7,A
                                           ; SOURCE LINE # 551
00F3         ?C0044:
00F3 22                RET     
             ; FUNCTION _STOE_CopyCode2TPBR (END)

             ; FUNCTION _STOE_CHECK_MAC (BEGIN)
                                           ; SOURCE LINE # 563
0000 90000000    R     MOV     DPTR,#ip_addr
0004 EB                MOV     A,R3
0005 F0                MOVX    @DPTR,A
0006 A3                INC     DPTR
0007 EA                MOV     A,R2
0008 F0                MOVX    @DPTR,A
0009 A3                INC     DPTR
000A E9                MOV     A,R1
000B F0                MOVX    @DPTR,A
                                           ; SOURCE LINE # 564
                                           ; SOURCE LINE # 565
000C 7800        R     MOV     R0,#LOW result
000E 7C00        R     MOV     R4,#HIGH result
0010 7D00        R     MOV     R5,#MBYTE result
0012 7B00        R     MOV     R3,#MBYTE _?ix1001
0014 7A00        R     MOV     R2,#HIGH _?ix1001
0016 7900        R     MOV     R1,#LOW _?ix1001
0018 7E00              MOV     R6,#00H
001A 7F06              MOV     R7,#06H
001C 12000000    E     LCALL   ?C?COPY
                                           ; SOURCE LINE # 567
0020 90000000    R     MOV     DPTR,#ip_addr
0024 12000000    R     LCALL   L?0104
0028 F9                MOV     R1,A
0029 12000000    E     LCALL   ?C?LLDPTR
002D EF                MOV     A,R7
002E 547F              ANL     A,#07FH
0030 FF                MOV     R7,A
0031 EF                MOV     A,R7
0032 25E0              ADD     A,ACC
0034 90000000    R     MOV     DPTR,#entry_addr
0038 F0                MOVX    @DPTR,A
                                           ; SOURCE LINE # 569
0039 7C00        R     MOV     R4,#HIGH entry_addr
003B 7D00        R     MOV     R5,#LOW entry_addr
003D 7B01              MOV     R3,#01H
003F 7F07              MOV     R7,#07H
0041 12000000    R     LCALL   _stoe_WriteReg
C51 COMPILER V8.06   STOE                                                                  03/10/2026 15:30:55 PAGE 77  

                                           ; SOURCE LINE # 571
0045 90000000    R     MOV     DPTR,#entry_addr
0049 7403              MOV     A,#03H
004B F0                MOVX    @DPTR,A
                                           ; SOURCE LINE # 572
004C 7B01              MOV     R3,#01H
004E 7F06              MOV     R7,#06H
0050 12000000    R     LCALL   _stoe_WriteReg
                                           ; SOURCE LINE # 574
0054 7C00        R     MOV     R4,#HIGH result
0056 0D                INC     R5
0057 7B06              MOV     R3,#06H
0059 7F08              MOV     R7,#08H
005B 12000000    R     LCALL   _stoe_ReadReg
                                           ; SOURCE LINE # 576
005F 90000000    R     MOV     DPTR,#result
0063 E0                MOVX    A,@DPTR
0064 7F00              MOV     R7,#00H
0066 30E702            JNB     ACC.7,?C0053
                                           ; SOURCE LINE # 577
0069 7F01              MOV     R7,#01H
006B         ?C0053:
                                           ; SOURCE LINE # 579
                                           ; SOURCE LINE # 581
006B         ?C0054:
006B 22                RET     
             ; FUNCTION _STOE_CHECK_MAC (END)

C51 COMPILER V8.06   STOE                                                                  03/10/2026 15:30:55 PAGE 78  

NAME                                    CLASS   MSPACE  TYPE    OFFSET  SIZE
====                                    =====   ======  ====    ======  ====


TB08 . . . . . . . . . . . . . . . . .  ABSBIT   -----  BIT      009BH  1
PHY_INFO . . . . . . . . . . . . . . .  TYPEDEF  -----  STRUCT   -----  2
  PhyAddr. . . . . . . . . . . . . . .  MEMBER   -----  U_CHAR   0000H  1
  PhyType. . . . . . . . . . . . . . .  MEMBER   -----  U_CHAR   0001H  1
TB18 . . . . . . . . . . . . . . . . .  ABSBIT   -----  BIT      00C3H  1
P0 . . . . . . . . . . . . . . . . . .  SFR      DATA   U_CHAR   0080H  1
SM00 . . . . . . . . . . . . . . . . .  ABSBIT   -----  BIT      009FH  1
P1 . . . . . . . . . . . . . . . . . .  SFR      DATA   U_CHAR   0090H  1
SM10 . . . . . . . . . . . . . . . . .  ABSBIT   -----  BIT      00C7H  1
SM01 . . . . . . . . . . . . . . . . .  ABSBIT   -----  BIT      009EH  1
P2 . . . . . . . . . . . . . . . . . .  SFR      DATA   U_CHAR   00A0H  1
SM11 . . . . . . . . . . . . . . . . .  ABSBIT   -----  BIT      00C6H  1
SM02 . . . . . . . . . . . . . . . . .  ABSBIT   -----  BIT      009DH  1
P3 . . . . . . . . . . . . . . . . . .  SFR      DATA   U_CHAR   00B0H  1
AC . . . . . . . . . . . . . . . . . .  ABSBIT   -----  BIT      00D6H  1
SM12 . . . . . . . . . . . . . . . . .  ABSBIT   -----  BIT      00C5H  1
T0 . . . . . . . . . . . . . . . . . .  ABSBIT   -----  BIT      00B4H  1
SPIDR. . . . . . . . . . . . . . . . .  SFR      DATA   U_CHAR   00CFH  1
stoe_StartOperate. . . . . . . . . . .  STATIC   CODE   PROC     0000H  -----
  temp . . . . . . . . . . . . . . . .  AUTO     XDATA  U_CHAR   0000H  1
T1 . . . . . . . . . . . . . . . . . .  ABSBIT   -----  BIT      00B5H  1
EA . . . . . . . . . . . . . . . . . .  ABSBIT   -----  BIT      00AFH  1
OWCIR. . . . . . . . . . . . . . . . .  SFR      DATA   U_CHAR   00D6H  1
STOE_WaitHwReleaseRcvBuf . . . . . . .  PUBLIC   CODE   PROC     0000H  -----
  temp . . . . . . . . . . . . . . . .  AUTO     XDATA  U_CHAR   0000H  1
  isr. . . . . . . . . . . . . . . . .  * REG *  DATA   U_CHAR   0007H  1
CH . . . . . . . . . . . . . . . . . .  SFR      DATA   U_CHAR   00C5H  1
DPH0 . . . . . . . . . . . . . . . . .  SFR      DATA   U_CHAR   0083H  1
IE . . . . . . . . . . . . . . . . . .  SFR      DATA   U_CHAR   00A8H  1
DPH1 . . . . . . . . . . . . . . . . .  SFR      DATA   U_CHAR   0085H  1
CL . . . . . . . . . . . . . . . . . .  SFR      DATA   U_CHAR   00C4H  1
P0_0 . . . . . . . . . . . . . . . . .  ABSBIT   -----  BIT      0080H  1
xStackBuf. . . . . . . . . . . . . . .  PUBLIC   XDATA  ARRAY    52C0H  64
P1_0 . . . . . . . . . . . . . . . . .  ABSBIT   -----  BIT      0090H  1
P0_1 . . . . . . . . . . . . . . . . .  ABSBIT   -----  BIT      0081H  1
CCAPH0 . . . . . . . . . . . . . . . .  SFR      DATA   U_CHAR   00B9H  1
DPL0 . . . . . . . . . . . . . . . . .  SFR      DATA   U_CHAR   0082H  1
P2_0 . . . . . . . . . . . . . . . . .  ABSBIT   -----  BIT      00A0H  1
P1_1 . . . . . . . . . . . . . . . . .  ABSBIT   -----  BIT      0091H  1
P0_2 . . . . . . . . . . . . . . . . .  ABSBIT   -----  BIT      0082H  1
CCAPH1 . . . . . . . . . . . . . . . .  SFR      DATA   U_CHAR   00BAH  1
DPL1 . . . . . . . . . . . . . . . . .  SFR      DATA   U_CHAR   0084H  1
stoe_XmitHandle. . . . . . . . . . . .  PUBLIC   CODE   PROC     0000H  -----
  temp . . . . . . . . . . . . . . . .  AUTO     XDATA  U_CHAR   0000H  1
P3_0 . . . . . . . . . . . . . . . . .  ABSBIT   -----  BIT      00B0H  1
P2_1 . . . . . . . . . . . . . . . . .  ABSBIT   -----  BIT      00A1H  1
P1_2 . . . . . . . . . . . . . . . . .  ABSBIT   -----  BIT      0092H  1
P0_3 . . . . . . . . . . . . . . . . .  ABSBIT   -----  BIT      0083H  1
UR2_DLH. . . . . . . . . . . . . . . .  SFR      DATA   U_CHAR   00E2H  1
CCAPH2 . . . . . . . . . . . . . . . .  SFR      DATA   U_CHAR   00BBH  1
XMRHR. . . . . . . . . . . . . . . . .  SFR      DATA   U_CHAR   00A7H  1
P3_1 . . . . . . . . . . . . . . . . .  ABSBIT   -----  BIT      00B1H  1
P2_2 . . . . . . . . . . . . . . . . .  ABSBIT   -----  BIT      00A2H  1
P1_3 . . . . . . . . . . . . . . . . .  ABSBIT   -----  BIT      0093H  1
P0_4 . . . . . . . . . . . . . . . . .  ABSBIT   -----  BIT      0084H  1
CCAPH3 . . . . . . . . . . . . . . . .  SFR      DATA   U_CHAR   00BCH  1
P3_2 . . . . . . . . . . . . . . . . .  ABSBIT   -----  BIT      00B2H  1
C51 COMPILER V8.06   STOE                                                                  03/10/2026 15:30:55 PAGE 79  

NAME                                    CLASS   MSPACE  TYPE    OFFSET  SIZE
====                                    =====   ======  ====    ======  ====


P2_3 . . . . . . . . . . . . . . . . .  ABSBIT   -----  BIT      00A3H  1
P1_4 . . . . . . . . . . . . . . . . .  ABSBIT   -----  BIT      0094H  1
P0_5 . . . . . . . . . . . . . . . . .  ABSBIT   -----  BIT      0085H  1
TA . . . . . . . . . . . . . . . . . .  SFR      DATA   U_CHAR   00EBH  1
CCAPH4 . . . . . . . . . . . . . . . .  SFR      DATA   U_CHAR   00BDH  1
CCAPL0 . . . . . . . . . . . . . . . .  SFR      DATA   U_CHAR   00B1H  1
STOE_FRAME_HEADER. . . . . . . . . . .  TYPEDEF  -----  STRUCT   -----  7
  NPR. . . . . . . . . . . . . . . . .  MEMBER   -----  U_INT    0000H  2
  Length . . . . . . . . . . . . . . .  MEMBER   -----  U_INT    0002H  2
  Protocol . . . . . . . . . . . . . .  MEMBER   -----  U_CHAR   0004H  1
  DataOffset . . . . . . . . . . . . .  MEMBER   -----  U_CHAR   0005H  1
  Packet . . . . . . . . . . . . . . .  MEMBER   -----  U_CHAR   0006H  1
EXF2 . . . . . . . . . . . . . . . . .  ABSBIT   -----  BIT      00CEH  1
RD . . . . . . . . . . . . . . . . . .  ABSBIT   -----  BIT      00B7H  1
P3_3 . . . . . . . . . . . . . . . . .  ABSBIT   -----  BIT      00B3H  1
P2_4 . . . . . . . . . . . . . . . . .  ABSBIT   -----  BIT      00A4H  1
REN0 . . . . . . . . . . . . . . . . .  ABSBIT   -----  BIT      009CH  1
P1_5 . . . . . . . . . . . . . . . . .  ABSBIT   -----  BIT      0095H  1
P0_6 . . . . . . . . . . . . . . . . .  ABSBIT   -----  BIT      0086H  1
UR2_FCR. . . . . . . . . . . . . . . .  SFR      DATA   U_CHAR   00E3H  1
CCAPM0 . . . . . . . . . . . . . . . .  SFR      DATA   U_CHAR   00D1H  1
T2IF . . . . . . . . . . . . . . . . .  SFR      DATA   U_CHAR   00C9H  1
CCAPL1 . . . . . . . . . . . . . . . .  SFR      DATA   U_CHAR   00B2H  1
REN1 . . . . . . . . . . . . . . . . .  ABSBIT   -----  BIT      00C4H  1
P3_4 . . . . . . . . . . . . . . . . .  ABSBIT   -----  BIT      00B4H  1
P2_5 . . . . . . . . . . . . . . . . .  ABSBIT   -----  BIT      00A5H  1
P1_6 . . . . . . . . . . . . . . . . .  ABSBIT   -----  BIT      0096H  1
P0_7 . . . . . . . . . . . . . . . . .  ABSBIT   -----  BIT      0087H  1
UR2_DLL. . . . . . . . . . . . . . . .  SFR      DATA   U_CHAR   00E1H  1
CCAPM1 . . . . . . . . . . . . . . . .  SFR      DATA   U_CHAR   00D2H  1
CCAPL2 . . . . . . . . . . . . . . . .  SFR      DATA   U_CHAR   00B3H  1
XMRLR. . . . . . . . . . . . . . . . .  SFR      DATA   U_CHAR   00A6H  1
P3_5 . . . . . . . . . . . . . . . . .  ABSBIT   -----  BIT      00B5H  1
P2_6 . . . . . . . . . . . . . . . . .  ABSBIT   -----  BIT      00A6H  1
P1_7 . . . . . . . . . . . . . . . . .  ABSBIT   -----  BIT      0097H  1
CCAPM2 . . . . . . . . . . . . . . . .  SFR      DATA   U_CHAR   00D3H  1
CCAPL3 . . . . . . . . . . . . . . . .  SFR      DATA   U_CHAR   00B4H  1
XMWHR. . . . . . . . . . . . . . . . .  SFR      DATA   U_CHAR   00A5H  1
P3_6 . . . . . . . . . . . . . . . . .  ABSBIT   -----  BIT      00B6H  1
P2_7 . . . . . . . . . . . . . . . . .  ABSBIT   -----  BIT      00A7H  1
CCAPM3 . . . . . . . . . . . . . . . .  SFR      DATA   U_CHAR   00D4H  1
IP . . . . . . . . . . . . . . . . . .  SFR      DATA   U_CHAR   00B8H  1
CCAPL4 . . . . . . . . . . . . . . . .  SFR      DATA   U_CHAR   00B5H  1
stoe_BufferSize. . . . . . . . . . . .  STATIC   XDATA  ARRAY    6700H  6400
_DELAY_Us. . . . . . . . . . . . . . .  EXTERN   CODE   PROC     -----  -----
P3_7 . . . . . . . . . . . . . . . . .  ABSBIT   -----  BIT      00B7H  1
CCAPM4 . . . . . . . . . . . . . . . .  SFR      DATA   U_CHAR   00D5H  1
DBAR . . . . . . . . . . . . . . . . .  SFR      DATA   U_CHAR   009AH  1
stoe_RcvHandle . . . . . . . . . . . .  STATIC   CODE   PROC     0000H  -----
  pframe . . . . . . . . . . . . . . .  STATIC   XDATA  PTR      0001H  2
  length . . . . . . . . . . . . . . .  AUTO     XDATA  U_INT    0000H  2
  pages. . . . . . . . . . . . . . . .  AUTO     XDATA  U_CHAR   0002H  1
  isr. . . . . . . . . . . . . . . . .  * REG *  DATA   U_CHAR   0007H  1
UR2_IER. . . . . . . . . . . . . . . .  SFR      DATA   U_CHAR   00E2H  1
stoe_StopOperate . . . . . . . . . . .  PUBLIC   CODE   PROC     0000H  -----
  temp . . . . . . . . . . . . . . . .  AUTO     XDATA  U_CHAR   0000H  1
CY . . . . . . . . . . . . . . . . . .  ABSBIT   -----  BIT      00D7H  1
C51 COMPILER V8.06   STOE                                                                  03/10/2026 15:30:55 PAGE 80  

NAME                                    CLASS   MSPACE  TYPE    OFFSET  SIZE
====                                    =====   ======  ====    ======  ====


INT0 . . . . . . . . . . . . . . . . .  ABSBIT   -----  BIT      00B2H  1
UR2_LCR. . . . . . . . . . . . . . . .  SFR      DATA   U_CHAR   00E4H  1
XMWLR. . . . . . . . . . . . . . . . .  SFR      DATA   U_CHAR   00A4H  1
INT1 . . . . . . . . . . . . . . . . .  ABSBIT   -----  BIT      00B3H  1
UR2_MCR. . . . . . . . . . . . . . . .  SFR      DATA   U_CHAR   00E5H  1
DPX0 . . . . . . . . . . . . . . . . .  SFR      DATA   U_CHAR   0093H  1
I2CCIR . . . . . . . . . . . . . . . .  SFR      DATA   U_CHAR   0096H  1
DPX1 . . . . . . . . . . . . . . . . .  SFR      DATA   U_CHAR   0095H  1
UR2_IIR. . . . . . . . . . . . . . . .  SFR      DATA   U_CHAR   00E3H  1
UR2_RBR. . . . . . . . . . . . . . . .  SFR      DATA   U_CHAR   00E1H  1
_STOE_SetGateway . . . . . . . . . . .  PUBLIC   CODE   PROC     0000H  -----
  gateway. . . . . . . . . . . . . . .  AUTO     XDATA  U_LONG   0000H  4
ACON . . . . . . . . . . . . . . . . .  SFR      DATA   U_CHAR   009DH  1
DCIR . . . . . . . . . . . . . . . . .  SFR      DATA   U_CHAR   009BH  1
SP . . . . . . . . . . . . . . . . . .  SFR      DATA   U_CHAR   0081H  1
CCON . . . . . . . . . . . . . . . . .  SFR      DATA   U_CHAR   00C3H  1
CMOD . . . . . . . . . . . . . . . . .  SFR      DATA   U_CHAR   00C2H  1
_STOE_CopyCode2TPBR. . . . . . . . . .  PUBLIC   CODE   PROC     0000H  -----
  pdest. . . . . . . . . . . . . . . .  AUTO     XDATA  PTR      0000H  2
  psour. . . . . . . . . . . . . . . .  AUTO     XDATA  PTR      0002H  3
  length . . . . . . . . . . . . . . .  AUTO     XDATA  U_INT    0005H  2
  space. . . . . . . . . . . . . . . .  AUTO     XDATA  U_INT    0007H  2
  leftlen. . . . . . . . . . . . . . .  AUTO     XDATA  U_INT    0009H  2
MAC_WUF. . . . . . . . . . . . . . . .  TYPEDEF  -----  STRUCT   -----  15
  Mode . . . . . . . . . . . . . . . .  MEMBER   -----  U_CHAR   0000H  1
  Offset0. . . . . . . . . . . . . . .  MEMBER   -----  U_CHAR   0001H  1
  Offset1. . . . . . . . . . . . . . .  MEMBER   -----  U_CHAR   0002H  1
  Mask0. . . . . . . . . . . . . . . .  MEMBER   -----  U_LONG   0003H  4
  Mask1. . . . . . . . . . . . . . . .  MEMBER   -----  U_LONG   0007H  4
  Pframe . . . . . . . . . . . . . . .  MEMBER   -----  PTR      000BH  3
  Length . . . . . . . . . . . . . . .  MEMBER   -----  U_CHAR   000EH  1
OV . . . . . . . . . . . . . . . . . .  ABSBIT   -----  BIT      00D2H  1
PBDP . . . . . . . . . . . . . . . . .  PUBLIC   XDATA  PTR      0003H  2
ulong. . . . . . . . . . . . . . . . .  TYPEDEF  -----  U_LONG   -----  4
_STOE_Send . . . . . . . . . . . . . .  PUBLIC   CODE   PROC     0000H  -----
  pbuf . . . . . . . . . . . . . . . .  * REG *  DATA   PTR      0006H  2
  length . . . . . . . . . . . . . . .  * REG *  DATA   U_INT    0004H  2
  protocol . . . . . . . . . . . . . .  * REG *  DATA   U_CHAR   0003H  1
  pframe . . . . . . . . . . . . . . .  AUTO     XDATA  PTR      0000H  2
  occupypages. . . . . . . . . . . . .  AUTO     XDATA  U_CHAR   0002H  1
  isr. . . . . . . . . . . . . . . . .  * REG *  DATA   U_CHAR   0007H  1
WR . . . . . . . . . . . . . . . . . .  ABSBIT   -----  BIT      00B6H  1
UR2_THR. . . . . . . . . . . . . . . .  SFR      DATA   U_CHAR   00E1H  1
EWDI . . . . . . . . . . . . . . . . .  ABSBIT   -----  BIT      00EDH  1
WDIF . . . . . . . . . . . . . . . . .  ABSBIT   -----  BIT      00DBH  1
RLDH . . . . . . . . . . . . . . . . .  SFR      DATA   U_CHAR   00CBH  1
EPCR . . . . . . . . . . . . . . . . .  SFR      DATA   U_CHAR   00BEH  1
LDHR . . . . . . . . . . . . . . . . .  SFR      DATA   U_CHAR   00AAH  1
UR2_LSR. . . . . . . . . . . . . . . .  SFR      DATA   U_CHAR   00E6H  1
EPDR . . . . . . . . . . . . . . . . .  SFR      DATA   U_CHAR   00BFH  1
MCIR . . . . . . . . . . . . . . . . .  SFR      DATA   U_CHAR   00B6H  1
RCLK . . . . . . . . . . . . . . . . .  ABSBIT   -----  BIT      00CDH  1
UR2_MSR. . . . . . . . . . . . . . . .  SFR      DATA   U_CHAR   00E7H  1
STOE_Start . . . . . . . . . . . . . .  PUBLIC   CODE   PROC     0000H  -----
  temp . . . . . . . . . . . . . . . .  AUTO     XDATA  U_CHAR   0000H  1
bool . . . . . . . . . . . . . . . . .  TYPEDEF  -----  U_INT    -----  2
_STOE_CHECK_MAC. . . . . . . . . . . .  PUBLIC   CODE   PROC     0000H  -----
C51 COMPILER V8.06   STOE                                                                  03/10/2026 15:30:55 PAGE 81  

NAME                                    CLASS   MSPACE  TYPE    OFFSET  SIZE
====                                    =====   ======  ====    ======  ====


  ip_addr. . . . . . . . . . . . . . .  AUTO     XDATA  PTR      0000H  3
  entry_addr . . . . . . . . . . . . .  AUTO     XDATA  U_CHAR   0003H  1
  result . . . . . . . . . . . . . . .  AUTO     XDATA  ARRAY    0004H  6
_MAC_WAKEUP_FRAME. . . . . . . . . . .  * TAG *  -----  STRUCT   -----  15
  Mode . . . . . . . . . . . . . . . .  MEMBER   -----  U_CHAR   0000H  1
  Offset0. . . . . . . . . . . . . . .  MEMBER   -----  U_CHAR   0001H  1
  Offset1. . . . . . . . . . . . . . .  MEMBER   -----  U_CHAR   0002H  1
  Mask0. . . . . . . . . . . . . . . .  MEMBER   -----  U_LONG   0003H  4
  Mask1. . . . . . . . . . . . . . . .  MEMBER   -----  U_LONG   0007H  4
  Pframe . . . . . . . . . . . . . . .  MEMBER   -----  PTR      000BH  3
  Length . . . . . . . . . . . . . . .  MEMBER   -----  U_CHAR   000EH  1
TCLK . . . . . . . . . . . . . . . . .  ABSBIT   -----  BIT      00CCH  1
RLDL . . . . . . . . . . . . . . . . .  SFR      DATA   U_CHAR   00CAH  1
LDLR . . . . . . . . . . . . . . . . .  SFR      DATA   U_CHAR   00A9H  1
PCON . . . . . . . . . . . . . . . . .  SFR      DATA   U_CHAR   0087H  1
_STOE_AssignSendBuf. . . . . . . . . .  PUBLIC   CODE   PROC     0000H  -----
  length . . . . . . . . . . . . . . .  * REG *  DATA   U_INT    0006H  2
  pframe . . . . . . . . . . . . . . .  * REG *  DATA   PTR      0006H  2
  occupypages. . . . . . . . . . . . .  * REG *  DATA   U_CHAR   0005H  1
CANCIR . . . . . . . . . . . . . . . .  SFR      DATA   U_CHAR   00DEH  1
_STOE_Init . . . . . . . . . . . . . .  PUBLIC   CODE   PROC     0000H  -----
  network_type . . . . . . . . . . . .  AUTO     XDATA  U_CHAR   0000H  1
  temp . . . . . . . . . . . . . . . .  AUTO     XDATA  ARRAY    0001H  2
  value. . . . . . . . . . . . . . . .  AUTO     XDATA  ARRAY    0003H  6
TCIR . . . . . . . . . . . . . . . . .  SFR      DATA   U_CHAR   00AEH  1
PWDI . . . . . . . . . . . . . . . . .  ABSBIT   -----  BIT      00FDH  1
LSCR . . . . . . . . . . . . . . . . .  SFR      DATA   U_CHAR   00A2H  1
TMOD . . . . . . . . . . . . . . . . .  SFR      DATA   U_CHAR   0089H  1
TCON . . . . . . . . . . . . . . . . .  SFR      DATA   U_CHAR   0088H  1
byte . . . . . . . . . . . . . . . . .  TYPEDEF  -----  U_CHAR   -----  1
_stoe_ReadReg. . . . . . . . . . . . .  PUBLIC   CODE   PROC     000BH  -----
  regaddr. . . . . . . . . . . . . . .  * REG *  DATA   U_CHAR   0007H  1
  pbuf . . . . . . . . . . . . . . . .  * REG *  DATA   PTR      0004H  2
  length . . . . . . . . . . . . . . .  * REG *  DATA   U_CHAR   0003H  1
  isr. . . . . . . . . . . . . . . . .  * REG *  DATA   U_CHAR   0006H  1
_BUF_DESC_PAGE . . . . . . . . . . . .  * TAG *  -----  STRUCT   -----  190
  BDP_ID . . . . . . . . . . . . . . .  MEMBER   -----  U_CHAR   0000H  1
  Pad0 . . . . . . . . . . . . . . . .  MEMBER   -----  U_CHAR   0001H  1
  RSPP . . . . . . . . . . . . . . . .  MEMBER   -----  U_INT    0002H  2
  REPP . . . . . . . . . . . . . . . .  MEMBER   -----  U_INT    0004H  2
  RHPR . . . . . . . . . . . . . . . .  MEMBER   -----  U_INT    0006H  2
  RTPR . . . . . . . . . . . . . . . .  MEMBER   -----  U_INT    0008H  2
  RFP. . . . . . . . . . . . . . . . .  MEMBER   -----  U_CHAR   000AH  1
  Pad1 . . . . . . . . . . . . . . . .  MEMBER   -----  U_CHAR   000BH  1
  NetStation . . . . . . . . . . . . .  MEMBER   -----  STRUCT   000CH  36
  PhyInfo. . . . . . . . . . . . . . .  MEMBER   -----  STRUCT   0030H  2
  MacInfo. . . . . . . . . . . . . . .  MEMBER   -----  STRUCT   0032H  5
  RcvReserved. . . . . . . . . . . . .  MEMBER   -----  ARRAY    0037H  73
  TSPP . . . . . . . . . . . . . . . .  MEMBER   -----  U_INT    0080H  2
  TEPP . . . . . . . . . . . . . . . .  MEMBER   -----  U_INT    0082H  2
  THPR . . . . . . . . . . . . . . . .  MEMBER   -----  U_INT    0084H  2
  TTPR . . . . . . . . . . . . . . . .  MEMBER   -----  U_INT    0086H  2
  TFP. . . . . . . . . . . . . . . . .  MEMBER   -----  U_CHAR   0088H  1
  Pad2 . . . . . . . . . . . . . . . .  MEMBER   -----  U_CHAR   0089H  1
  VSPP . . . . . . . . . . . . . . . .  MEMBER   -----  U_INT    008AH  2
  RcvStartAddr . . . . . . . . . . . .  MEMBER   -----  PTR      008CH  2
  RcvEndAddr . . . . . . . . . . . . .  MEMBER   -----  PTR      008EH  2
C51 COMPILER V8.06   STOE                                                                  03/10/2026 15:30:55 PAGE 82  

NAME                                    CLASS   MSPACE  TYPE    OFFSET  SIZE
====                                    =====   ======  ====    ======  ====


  XmtStartAddr . . . . . . . . . . . .  MEMBER   -----  PTR      0090H  2
  XmtEndAddr . . . . . . . . . . . . .  MEMBER   -----  PTR      0092H  2
  STOE_TxInform. . . . . . . . . . . .  MEMBER   -----  STRUCT   0094H  21
  STOE_RxInform. . . . . . . . . . . .  MEMBER   -----  STRUCT   00A9H  21
OWDR . . . . . . . . . . . . . . . . .  SFR      DATA   U_CHAR   00D7H  1
word . . . . . . . . . . . . . . . . .  TYPEDEF  -----  U_INT    -----  2
IE0. . . . . . . . . . . . . . . . . .  ABSBIT   -----  BIT      0089H  1
IE1. . . . . . . . . . . . . . . . . .  ABSBIT   -----  BIT      008BH  1
MXAX . . . . . . . . . . . . . . . . .  SFR      DATA   U_CHAR   00EAH  1
LMSR . . . . . . . . . . . . . . . . .  SFR      DATA   U_CHAR   00A1H  1
sint . . . . . . . . . . . . . . . . .  TYPEDEF  -----  INT      -----  2
MD0. . . . . . . . . . . . . . . . . .  SFR      DATA   U_CHAR   00F9H  1
B. . . . . . . . . . . . . . . . . . .  SFR      DATA   U_CHAR   00F0H  1
uint . . . . . . . . . . . . . . . . .  TYPEDEF  -----  U_INT    -----  2
MD1. . . . . . . . . . . . . . . . . .  SFR      DATA   U_CHAR   00FAH  1
LSAIER . . . . . . . . . . . . . . . .  SFR      DATA   U_CHAR   00A1H  1
_?ix1000 . . . . . . . . . . . . . . .  STATIC   CODE   ARRAY    0000H  6
MAC_Start. . . . . . . . . . . . . . .  EXTERN   CODE   PROC     -----  -----
MD2. . . . . . . . . . . . . . . . . .  SFR      DATA   U_CHAR   00FBH  1
_?ix1001 . . . . . . . . . . . . . . .  STATIC   CODE   ARRAY    0006H  6
DMA_Start. . . . . . . . . . . . . . .  EXTERN   CODE   PROC     -----  -----
WTRF . . . . . . . . . . . . . . . . .  ABSBIT   -----  BIT      00DAH  1
MD3. . . . . . . . . . . . . . . . . .  SFR      DATA   U_CHAR   00FCH  1
PISSR1 . . . . . . . . . . . . . . . .  SFR      DATA   U_CHAR   009EH  1
MD4. . . . . . . . . . . . . . . . . .  SFR      DATA   U_CHAR   00FDH  1
LSSR . . . . . . . . . . . . . . . . .  SFR      DATA   U_CHAR   00A3H  1
PISSR2 . . . . . . . . . . . . . . . .  SFR      DATA   U_CHAR   009FH  1
_PACKET_INFORMATION. . . . . . . . . .  * TAG *  -----  STRUCT   -----  21
  PBuf . . . . . . . . . . . . . . . .  MEMBER   -----  PTR      0000H  2
  PIpHeader. . . . . . . . . . . . . .  MEMBER   -----  PTR      0002H  2
  PTUIHeader . . . . . . . . . . . . .  MEMBER   -----  PTR      0004H  2
  PData. . . . . . . . . . . . . . . .  MEMBER   -----  PTR      0006H  2
  TotalLen . . . . . . . . . . . . . .  MEMBER   -----  U_INT    0008H  2
  IpTotalLen . . . . . . . . . . . . .  MEMBER   -----  U_INT    000AH  2
  TUITotalLen. . . . . . . . . . . . .  MEMBER   -----  U_INT    000CH  2
  DataLen. . . . . . . . . . . . . . .  MEMBER   -----  U_INT    000EH  2
  Protocol . . . . . . . . . . . . . .  MEMBER   -----  U_CHAR   0010H  1
  IpHeaderLen. . . . . . . . . . . . .  MEMBER   -----  U_CHAR   0011H  1
  TcpHeaderLen . . . . . . . . . . . .  MEMBER   -----  U_CHAR   0012H  1
  SocketId . . . . . . . . . . . . . .  MEMBER   -----  U_CHAR   0013H  1
  Pages. . . . . . . . . . . . . . . .  MEMBER   -----  U_CHAR   0014H  1
MD5. . . . . . . . . . . . . . . . . .  SFR      DATA   U_CHAR   00FEH  1
ACC. . . . . . . . . . . . . . . . . .  SFR      DATA   U_CHAR   00E0H  1
_MAC_Init. . . . . . . . . . . . . . .  EXTERN   CODE   PROC     -----  -----
ES0. . . . . . . . . . . . . . . . . .  ABSBIT   -----  BIT      00ACH  1
DMA_Init . . . . . . . . . . . . . . .  EXTERN   CODE   PROC     -----  -----
CT2. . . . . . . . . . . . . . . . . .  ABSBIT   -----  BIT      00C9H  1
ES1. . . . . . . . . . . . . . . . . .  ABSBIT   -----  BIT      00AEH  1
ET0. . . . . . . . . . . . . . . . . .  ABSBIT   -----  BIT      00A9H  1
ET1. . . . . . . . . . . . . . . . . .  ABSBIT   -----  BIT      00ABH  1
TF0. . . . . . . . . . . . . . . . . .  ABSBIT   -----  BIT      008DH  1
ET2. . . . . . . . . . . . . . . . . .  ABSBIT   -----  BIT      00ADH  1
RI0. . . . . . . . . . . . . . . . . .  ABSBIT   -----  BIT      0098H  1
TF1. . . . . . . . . . . . . . . . . .  ABSBIT   -----  BIT      008FH  1
_stoe_WriteReg . . . . . . . . . . . .  PUBLIC   CODE   PROC     0006H  -----
  regaddr. . . . . . . . . . . . . . .  * REG *  DATA   U_CHAR   0007H  1
  pbuf . . . . . . . . . . . . . . . .  * REG *  DATA   PTR      0004H  2
C51 COMPILER V8.06   STOE                                                                  03/10/2026 15:30:55 PAGE 83  

NAME                                    CLASS   MSPACE  TYPE    OFFSET  SIZE
====                                    =====   ======  ====    ======  ====


  length . . . . . . . . . . . . . . .  * REG *  DATA   U_CHAR   0003H  1
  isr. . . . . . . . . . . . . . . . .  * REG *  DATA   U_CHAR   0006H  1
stoe_BdpInit . . . . . . . . . . . . .  STATIC   CODE   PROC     0000H  -----
  page . . . . . . . . . . . . . . . .  * REG *  DATA   U_INT    0006H  2
TF2. . . . . . . . . . . . . . . . . .  ABSBIT   -----  BIT      00CFH  1
RI1. . . . . . . . . . . . . . . . . .  ABSBIT   -----  BIT      00C0H  1
SPICIR . . . . . . . . . . . . . . . .  SFR      DATA   U_CHAR   00CEH  1
TH0. . . . . . . . . . . . . . . . . .  SFR      DATA   U_CHAR   008CH  1
EX0. . . . . . . . . . . . . . . . . .  ABSBIT   -----  BIT      00A8H  1
TI0. . . . . . . . . . . . . . . . . .  ABSBIT   -----  BIT      0099H  1
IT0. . . . . . . . . . . . . . . . . .  ABSBIT   -----  BIT      0088H  1
TH1. . . . . . . . . . . . . . . . . .  SFR      DATA   U_CHAR   008DH  1
TI1. . . . . . . . . . . . . . . . . .  ABSBIT   -----  BIT      00C1H  1
EX1. . . . . . . . . . . . . . . . . .  ABSBIT   -----  BIT      00AAH  1
IT1. . . . . . . . . . . . . . . . . .  ABSBIT   -----  BIT      008AH  1
TH2. . . . . . . . . . . . . . . . . .  SFR      DATA   U_CHAR   00CDH  1
_STOE_SetSubnetMask. . . . . . . . . .  PUBLIC   CODE   PROC     0000H  -----
  subnet . . . . . . . . . . . . . . .  AUTO     XDATA  U_LONG   0000H  4
P. . . . . . . . . . . . . . . . . . .  ABSBIT   -----  BIT      00D0H  1
TL0. . . . . . . . . . . . . . . . . .  SFR      DATA   U_CHAR   008AH  1
CSREPR . . . . . . . . . . . . . . . .  SFR      DATA   U_CHAR   008FH  1
TL1. . . . . . . . . . . . . . . . . .  SFR      DATA   U_CHAR   008BH  1
_LOCAL_STATION . . . . . . . . . . . .  * TAG *  -----  STRUCT   -----  36
  PermStaAddr. . . . . . . . . . . . .  MEMBER   -----  ARRAY    0000H  6
  CurrStaAddr. . . . . . . . . . . . .  MEMBER   -----  ARRAY    0006H  6
  StationIP. . . . . . . . . . . . . .  MEMBER   -----  U_LONG   000CH  4
  SubnetMask . . . . . . . . . . . . .  MEMBER   -----  U_LONG   0010H  4
  Gateway. . . . . . . . . . . . . . .  MEMBER   -----  U_LONG   0014H  4
  DefaultIP. . . . . . . . . . . . . .  MEMBER   -----  U_LONG   0018H  4
  DefaultMask. . . . . . . . . . . . .  MEMBER   -----  U_LONG   001CH  4
  DefaultGateway . . . . . . . . . . .  MEMBER   -----  U_LONG   0020H  4
TL2. . . . . . . . . . . . . . . . . .  SFR      DATA   U_CHAR   00CCH  1
PS0. . . . . . . . . . . . . . . . . .  ABSBIT   -----  BIT      00BCH  1
EIE. . . . . . . . . . . . . . . . . .  SFR      DATA   U_CHAR   00E8H  1
WTST . . . . . . . . . . . . . . . . .  SFR      DATA   U_CHAR   0092H  1
PS1. . . . . . . . . . . . . . . . . .  ABSBIT   -----  BIT      00BEH  1
PT0. . . . . . . . . . . . . . . . . .  ABSBIT   -----  BIT      00B9H  1
EIF. . . . . . . . . . . . . . . . . .  SFR      DATA   U_CHAR   0091H  1
STOE_ProcessInterrupt. . . . . . . . .  PUBLIC   CODE   PROC     0000H  -----
  int_status . . . . . . . . . . . . .  STATIC   XDATA  U_CHAR   0000H  1
  temp . . . . . . . . . . . . . . . .  AUTO     XDATA  U_CHAR   0000H  1
RS0. . . . . . . . . . . . . . . . . .  ABSBIT   -----  BIT      00D3H  1
PT1. . . . . . . . . . . . . . . . . .  ABSBIT   -----  BIT      00BBH  1
I2CDR. . . . . . . . . . . . . . . . .  SFR      DATA   U_CHAR   0097H  1
RS1. . . . . . . . . . . . . . . . . .  ABSBIT   -----  BIT      00D4H  1
PT2. . . . . . . . . . . . . . . . . .  ABSBIT   -----  BIT      00BDH  1
TR0. . . . . . . . . . . . . . . . . .  ABSBIT   -----  BIT      008CH  1
TR1. . . . . . . . . . . . . . . . . .  ABSBIT   -----  BIT      008EH  1
TR2. . . . . . . . . . . . . . . . . .  ABSBIT   -----  BIT      00CAH  1
PX0. . . . . . . . . . . . . . . . . .  ABSBIT   -----  BIT      00B8H  1
PX1. . . . . . . . . . . . . . . . . .  ABSBIT   -----  BIT      00BAH  1
DDR. . . . . . . . . . . . . . . . . .  SFR      DATA   U_CHAR   009CH  1
_STOE_RcvCallback. . . . . . . . . . .  PUBLIC   XDATA  PTR      0005H  3
DPH. . . . . . . . . . . . . . . . . .  SFR      DATA   U_CHAR   0083H  1
BUF_DESC_PAGE. . . . . . . . . . . . .  TYPEDEF  -----  STRUCT   -----  190
  BDP_ID . . . . . . . . . . . . . . .  MEMBER   -----  U_CHAR   0000H  1
  Pad0 . . . . . . . . . . . . . . . .  MEMBER   -----  U_CHAR   0001H  1
C51 COMPILER V8.06   STOE                                                                  03/10/2026 15:30:55 PAGE 84  

NAME                                    CLASS   MSPACE  TYPE    OFFSET  SIZE
====                                    =====   ======  ====    ======  ====


  RSPP . . . . . . . . . . . . . . . .  MEMBER   -----  U_INT    0002H  2
  REPP . . . . . . . . . . . . . . . .  MEMBER   -----  U_INT    0004H  2
  RHPR . . . . . . . . . . . . . . . .  MEMBER   -----  U_INT    0006H  2
  RTPR . . . . . . . . . . . . . . . .  MEMBER   -----  U_INT    0008H  2
  RFP. . . . . . . . . . . . . . . . .  MEMBER   -----  U_CHAR   000AH  1
  Pad1 . . . . . . . . . . . . . . . .  MEMBER   -----  U_CHAR   000BH  1
  NetStation . . . . . . . . . . . . .  MEMBER   -----  STRUCT   000CH  36
  PhyInfo. . . . . . . . . . . . . . .  MEMBER   -----  STRUCT   0030H  2
  MacInfo. . . . . . . . . . . . . . .  MEMBER   -----  STRUCT   0032H  5
  RcvReserved. . . . . . . . . . . . .  MEMBER   -----  ARRAY    0037H  73
  TSPP . . . . . . . . . . . . . . . .  MEMBER   -----  U_INT    0080H  2
  TEPP . . . . . . . . . . . . . . . .  MEMBER   -----  U_INT    0082H  2
  THPR . . . . . . . . . . . . . . . .  MEMBER   -----  U_INT    0084H  2
  TTPR . . . . . . . . . . . . . . . .  MEMBER   -----  U_INT    0086H  2
  TFP. . . . . . . . . . . . . . . . .  MEMBER   -----  U_CHAR   0088H  1
  Pad2 . . . . . . . . . . . . . . . .  MEMBER   -----  U_CHAR   0089H  1
  VSPP . . . . . . . . . . . . . . . .  MEMBER   -----  U_INT    008AH  2
  RcvStartAddr . . . . . . . . . . . .  MEMBER   -----  PTR      008CH  2
  RcvEndAddr . . . . . . . . . . . . .  MEMBER   -----  PTR      008EH  2
  XmtStartAddr . . . . . . . . . . . .  MEMBER   -----  PTR      0090H  2
  XmtEndAddr . . . . . . . . . . . . .  MEMBER   -----  PTR      0092H  2
  STOE_TxInform. . . . . . . . . . . .  MEMBER   -----  STRUCT   0094H  21
  STOE_RxInform. . . . . . . . . . . .  MEMBER   -----  STRUCT   00A9H  21
_MAC_INFORMATION . . . . . . . . . . .  * TAG *  -----  STRUCT   -----  5
  LinkSpeed. . . . . . . . . . . . . .  MEMBER   -----  U_CHAR   0000H  1
  FullDuplex . . . . . . . . . . . . .  MEMBER   -----  U_CHAR   0001H  1
  MediumLinkType . . . . . . . . . . .  MEMBER   -----  U_CHAR   0002H  1
  NetworkType. . . . . . . . . . . . .  MEMBER   -----  U_CHAR   0003H  1
  InterruptMask. . . . . . . . . . . .  MEMBER   -----  U_CHAR   0004H  1
EIP. . . . . . . . . . . . . . . . . .  SFR      DATA   U_CHAR   00F8H  1
MAC_INFO . . . . . . . . . . . . . . .  TYPEDEF  -----  STRUCT   -----  5
  LinkSpeed. . . . . . . . . . . . . .  MEMBER   -----  U_CHAR   0000H  1
  FullDuplex . . . . . . . . . . . . .  MEMBER   -----  U_CHAR   0001H  1
  MediumLinkType . . . . . . . . . . .  MEMBER   -----  U_CHAR   0002H  1
  NetworkType. . . . . . . . . . . . .  MEMBER   -----  U_CHAR   0003H  1
  InterruptMask. . . . . . . . . . . .  MEMBER   -----  U_CHAR   0004H  1
PNetStation. . . . . . . . . . . . . .  PUBLIC   XDATA  PTR      0008H  2
DPL. . . . . . . . . . . . . . . . . .  SFR      DATA   U_CHAR   0082H  1
LCR. . . . . . . . . . . . . . . . . .  SFR      DATA   U_CHAR   00A2H  1
SBUF0. . . . . . . . . . . . . . . . .  SFR      DATA   U_CHAR   0099H  1
_STOE_SetIPAddr. . . . . . . . . . . .  PUBLIC   CODE   PROC     0000H  -----
  ip . . . . . . . . . . . . . . . . .  AUTO     XDATA  U_LONG   0000H  4
SBUF1. . . . . . . . . . . . . . . . .  SFR      DATA   U_CHAR   00C1H  1
EINT2. . . . . . . . . . . . . . . . .  ABSBIT   -----  BIT      00E8H  1
EXEN2. . . . . . . . . . . . . . . . .  ABSBIT   -----  BIT      00CBH  1
MDR. . . . . . . . . . . . . . . . . .  SFR      DATA   U_CHAR   00B7H  1
EINT3. . . . . . . . . . . . . . . . .  ABSBIT   -----  BIT      00E9H  1
CPRL2. . . . . . . . . . . . . . . . .  ABSBIT   -----  BIT      00C8H  1
SCON0. . . . . . . . . . . . . . . . .  SFR      DATA   U_CHAR   0098H  1
EINT4. . . . . . . . . . . . . . . . .  ABSBIT   -----  BIT      00EAH  1
SCON1. . . . . . . . . . . . . . . . .  SFR      DATA   U_CHAR   00C0H  1
SDSTSR . . . . . . . . . . . . . . . .  SFR      DATA   U_CHAR   0094H  1
PACKET_INFORMATION . . . . . . . . . .  TYPEDEF  -----  STRUCT   -----  21
  PBuf . . . . . . . . . . . . . . . .  MEMBER   -----  PTR      0000H  2
  PIpHeader. . . . . . . . . . . . . .  MEMBER   -----  PTR      0002H  2
  PTUIHeader . . . . . . . . . . . . .  MEMBER   -----  PTR      0004H  2
  PData. . . . . . . . . . . . . . . .  MEMBER   -----  PTR      0006H  2
C51 COMPILER V8.06   STOE                                                                  03/10/2026 15:30:55 PAGE 85  

NAME                                    CLASS   MSPACE  TYPE    OFFSET  SIZE
====                                    =====   ======  ====    ======  ====


  TotalLen . . . . . . . . . . . . . .  MEMBER   -----  U_INT    0008H  2
  IpTotalLen . . . . . . . . . . . . .  MEMBER   -----  U_INT    000AH  2
  TUITotalLen. . . . . . . . . . . . .  MEMBER   -----  U_INT    000CH  2
  DataLen. . . . . . . . . . . . . . .  MEMBER   -----  U_INT    000EH  2
  Protocol . . . . . . . . . . . . . .  MEMBER   -----  U_CHAR   0010H  1
  IpHeaderLen. . . . . . . . . . . . .  MEMBER   -----  U_CHAR   0011H  1
  TcpHeaderLen . . . . . . . . . . . .  MEMBER   -----  U_CHAR   0012H  1
  SocketId . . . . . . . . . . . . . .  MEMBER   -----  U_CHAR   0013H  1
  Pages. . . . . . . . . . . . . . . .  MEMBER   -----  U_CHAR   0014H  1
EINT5. . . . . . . . . . . . . . . . .  ABSBIT   -----  BIT      00EBH  1
STATUS . . . . . . . . . . . . . . . .  SFR      DATA   U_CHAR   00E9H  1
DELAY_Init . . . . . . . . . . . . . .  EXTERN   CODE   PROC     -----  -----
EINT6. . . . . . . . . . . . . . . . .  ABSBIT   -----  BIT      00ECH  1
T2CON. . . . . . . . . . . . . . . . .  SFR      DATA   U_CHAR   00C8H  1
DPS. . . . . . . . . . . . . . . . . .  SFR      DATA   U_CHAR   0086H  1
CANDR. . . . . . . . . . . . . . . . .  SFR      DATA   U_CHAR   00DFH  1
TDR. . . . . . . . . . . . . . . . . .  SFR      DATA   U_CHAR   00AFH  1
LDAHR. . . . . . . . . . . . . . . . .  SFR      DATA   U_CHAR   00A5H  1
DPX. . . . . . . . . . . . . . . . . .  SFR      DATA   U_CHAR   0093H  1
DMAHR. . . . . . . . . . . . . . . . .  SFR      DATA   U_CHAR   00ADH  1
PINT2. . . . . . . . . . . . . . . . .  ABSBIT   -----  BIT      00F8H  1
RXD. . . . . . . . . . . . . . . . . .  ABSBIT   -----  BIT      00B0H  1
PINT3. . . . . . . . . . . . . . . . .  ABSBIT   -----  BIT      00F9H  1
CKCON. . . . . . . . . . . . . . . . .  SFR      DATA   U_CHAR   008EH  1
PINT4. . . . . . . . . . . . . . . . .  ABSBIT   -----  BIT      00FAH  1
EWT. . . . . . . . . . . . . . . . . .  ABSBIT   -----  BIT      00D9H  1
TXD. . . . . . . . . . . . . . . . . .  ABSBIT   -----  BIT      00B1H  1
LDALR. . . . . . . . . . . . . . . . .  SFR      DATA   U_CHAR   00A4H  1
PINT5. . . . . . . . . . . . . . . . .  ABSBIT   -----  BIT      00FBH  1
DMALR. . . . . . . . . . . . . . . . .  SFR      DATA   U_CHAR   00ABH  1
LSR. . . . . . . . . . . . . . . . . .  SFR      DATA   U_CHAR   00A3H  1
LOCAL_STATION. . . . . . . . . . . . .  TYPEDEF  -----  STRUCT   -----  36
  PermStaAddr. . . . . . . . . . . . .  MEMBER   -----  ARRAY    0000H  6
  CurrStaAddr. . . . . . . . . . . . .  MEMBER   -----  ARRAY    0006H  6
  StationIP. . . . . . . . . . . . . .  MEMBER   -----  U_LONG   000CH  4
  SubnetMask . . . . . . . . . . . . .  MEMBER   -----  U_LONG   0010H  4
  Gateway. . . . . . . . . . . . . . .  MEMBER   -----  U_LONG   0014H  4
  DefaultIP. . . . . . . . . . . . . .  MEMBER   -----  U_LONG   0018H  4
  DefaultMask. . . . . . . . . . . . .  MEMBER   -----  U_LONG   001CH  4
  DefaultGateway . . . . . . . . . . .  MEMBER   -----  U_LONG   0020H  4
PINT6. . . . . . . . . . . . . . . . .  ABSBIT   -----  BIT      00FCH  1
DMAMR. . . . . . . . . . . . . . . . .  SFR      DATA   U_CHAR   00ACH  1
ARCON. . . . . . . . . . . . . . . . .  SFR      DATA   U_CHAR   00FFH  1
_STOE_FRAME_HEADER . . . . . . . . . .  * TAG *  -----  STRUCT   -----  7
  NPR. . . . . . . . . . . . . . . . .  MEMBER   -----  U_INT    0000H  2
  Length . . . . . . . . . . . . . . .  MEMBER   -----  U_INT    0002H  2
  Protocol . . . . . . . . . . . . . .  MEMBER   -----  U_CHAR   0004H  1
  DataOffset . . . . . . . . . . . . .  MEMBER   -----  U_CHAR   0005H  1
  Packet . . . . . . . . . . . . . . .  MEMBER   -----  U_CHAR   0006H  1
F0 . . . . . . . . . . . . . . . . . .  ABSBIT   -----  BIT      00D5H  1
F1 . . . . . . . . . . . . . . . . . .  ABSBIT   -----  BIT      00D1H  1
LDCSR. . . . . . . . . . . . . . . . .  SFR      DATA   U_CHAR   00A6H  1
stoe_InterruptStatus . . . . . . . . .  STATIC   XDATA  U_CHAR   000AH  1
ETH_RestartSendArpToGateway. . . . . .  EXTERN   CODE   PROC     -----  -----
PSW. . . . . . . . . . . . . . . . . .  SFR      DATA   U_CHAR   00D0H  1
RB08 . . . . . . . . . . . . . . . . .  ABSBIT   -----  BIT      009AH  1
WDCON. . . . . . . . . . . . . . . . .  SFR      DATA   U_CHAR   00D8H  1
C51 COMPILER V8.06   STOE                                                                  03/10/2026 15:30:55 PAGE 86  

NAME                                    CLASS   MSPACE  TYPE    OFFSET  SIZE
====                                    =====   ======  ====    ======  ====


_PHY_INFORMATION . . . . . . . . . . .  * TAG *  -----  STRUCT   -----  2
  PhyAddr. . . . . . . . . . . . . . .  MEMBER   -----  U_CHAR   0000H  1
  PhyType. . . . . . . . . . . . . . .  MEMBER   -----  U_CHAR   0001H  1
RWT. . . . . . . . . . . . . . . . . .  ABSBIT   -----  BIT      00D8H  1
RB18 . . . . . . . . . . . . . . . . .  ABSBIT   -----  BIT      00C2H  1


MODULE INFORMATION:   STATIC OVERLAYABLE
   CODE SIZE        =   2805    ----
   CONSTANT SIZE    =     12    ----
   XDATA SIZE       =     11      54
   PDATA SIZE       =   ----    ----
   DATA SIZE        =   ----    ----
   IDATA SIZE       =   ----    ----
   BIT SIZE         =   ----    ----
   EDATA SIZE       =   ----    ----
   HDATA SIZE       =   ----    ----
   XDATA CONST SIZE =   ----    ----
   FAR CONST SIZE   =   ----    ----
END OF MODULE INFORMATION.


C51 COMPILATION COMPLETE.  0 WARNING(S),  0 ERROR(S)
