C51 COMPILER V8.06   UART                                                                  03/10/2026 15:30:57 PAGE 1   


C51 COMPILER V8.06, COMPILATION OF MODULE UART
OBJECT MODULE PLACED IN uart.obj
COMPILER INVOKED BY: C:\Keil\C51\BIN\C51.EXE src\uart\uart.c LARGE OMF2 ROM(D16M) OPTIMIZE(9,SPEED) BROWSE INTVECTOR(0X6
                    -020) INCDIR(.\src\cpu\;.\src\ethernet;.\src\swdma\;.\src\mstimer\;.\src\uart\;.\src\main\;.\src\tcpip\;.\src\hsur\;.\src
                    -\gs2e\;.\src\debug\;.\src\dhcp;.\src\dns\;.\src\adapter\;.\src\pppoe\;.\src\console;.\src\telnet;.\src\smtp;.\src\http;.
                    -\src\web_page;.\src\si2c;.\src\eeprom;.\src\ping;.\src\fpga;.\src\menu;.\src\hid;.\src\flash) DEFINE(RuntimeCodeAt24KH) 
                    -VARBANKING DEBUG CODE LISTINCLUDE SYMBOLS PRINT(.\tmp\uart.lst) PREPRINT(.\tmp\uart.i) OBJECT(uart.obj)

line level    source

   1          //================================================================================
   2          //     Copyright (c) 2005     ASIX Electronic Corporation      All rights reserved.
   3          //
   4          //     This is unpublished proprietary source code of ASIX Electronic Corporation
   5          //
   6          //     The copyright notice above does not evidence any actual or intended
   7          //     publication of such source code.
   8          //================================================================================
   9          //
  10          //================================================================================
  11          // Module Name : uart.c
  12          // Purpose     : The UART module driver. It manages the character
  13          //               buffer and handles the ISR. This driver includes UARTs 0 & 1
  14          // Author      : Robin Lee
  15          // Date        : 2006-01-10
  16          // Notes       : None.
  17          //================================================================================
  18          
  19          // INCLUDE FILE DECLARATIONS //
  20          #include    "reg80390.h"
   1      =1  //--------------------------------------------------------------------------
   2      =1  // AX110XX.H
   3      =1  //
   4      =1  // Header file for the AX110XX.
   5      =1  // Copyright (c) 2001 Keil Software, Inc.  All rights reserved.
   6      =1  //--------------------------------------------------------------------------
   7      =1  //
   8      =1  // --------------------------------------------------------------------------*/
   9      =1  // Make sure that this file gets included only once.
  10      =1  // --------------------------------------------------------------------------*/
  11      =1  #ifndef AX110XX_HEADER_FILE
  12      =1  #define AX110XX_HEADER_FILE             1
  13      =1  // --------------------------------------------------------------------------*/
  14      =1  // Byte Registers
  15      =1  // --------------------------------------------------------------------------*/
  16      =1  sfr     P0                      = 0x80;// Port 0
  17      =1  sfr     SP                      = 0x81;// Stack Pointer
  18      =1  sfr     DPL0            = 0x82;// Data Pointer 0 Low Byte
  19      =1  sfr     DPH0            = 0x83;// Data Pointer 0 High Byte
  20      =1  sfr     DPL                     = 0x82;// Data Pointer 0 Low Byte
  21      =1  sfr     DPH                     = 0x83;// Data Pointer 0 High Byte
  22      =1  sfr     DPL1            = 0x84;// Data Pointer 1 Low Byte
  23      =1  sfr     DPH1            = 0x85;// Data Pointer 1 High Byte
  24      =1  sfr     DPS                     = 0x86;// Data Pointers Select Register
  25      =1  sfr     PCON            = 0x87;// Power Configuration Register
  26      =1  sfr TCON                = 0x88;// Timer 0,1 Configuration Register
  27      =1  sfr TMOD                = 0x89;// Timer 0,1 Control Mode Register
  28      =1  sfr TL0                 = 0x8A;// Timer 0 Low Byte Counter
  29      =1  sfr TL1                 = 0x8B;// Timer 1 Low Byte Counter
  30      =1  sfr TH0                 = 0x8C;// Timer 0 High Byte Counter
  31      =1  sfr TH1                 = 0x8D;// Timer 1 High Byte Counter
C51 COMPILER V8.06   UART                                                                  03/10/2026 15:30:57 PAGE 2   

  32      =1  sfr CKCON               = 0x8E;// Clock Control Register
  33      =1  sfr CSREPR              = 0x8F;// Software Reset and External Program RAM Select Register
  34      =1  
  35      =1  sfr P1                  = 0x90;// Port 1
  36      =1  sfr EIF                 = 0x91;// Extended Interrupt Flag Register
  37      =1  sfr WTST                = 0x92;// Program Wait States Register
  38      =1  sfr DPX0                = 0x93;// Data Pointer Extended Register 0
  39      =1  sfr DPX                 = 0x93;// Data Pointer Extended Register 0
  40      =1  sfr     SDSTSR          = 0x94;// Software Timer and Software DMA complete interrupt status
  41      =1  sfr DPX1                = 0x95;// Data Pointer Extended Register 1
  42      =1  sfr I2CCIR              = 0x96;// I2C Command Index Register
  43      =1  sfr I2CDR               = 0x97;// I2C Data Register
  44      =1  sfr SCON0               = 0x98;// UART 0 Configuration Register
  45      =1  sfr SBUF0               = 0x99;// UART 0 Buffer Register
  46      =1  sfr DBAR                = 0x9A;// DMA Bus Arbitration Register
  47      =1  sfr DCIR                = 0x9B;// DMA Command Index Register
  48      =1  sfr DDR                 = 0x9C;// DMA Data Register
  49      =1  sfr ACON                = 0x9D;// Address Control Register
  50      =1  sfr PISSR1              = 0x9E;// Peripheral Interrupt Status Summary Register 1
  51      =1  sfr PISSR2              = 0x9F;// Peripheral Interrupt Status Summary Register 2
  52      =1  
  53      =1  sfr P2                  = 0xA0;// Port 2
  54      =1  // Local Bus Master Mode //
  55      =1  sfr LMSR                = 0xA1;// Local Bus Mode Setup Register
  56      =1  sfr LCR                 = 0xA2;// Local Bus Command Register
  57      =1  sfr LSR                 = 0xA3;// Local Bus Status Register
  58      =1  sfr LDALR               = 0xA4;// Local Bus Device Address Low Register
  59      =1  sfr LDAHR               = 0xA5;// Local Bus Device Address High Register
  60      =1  sfr LDCSR               = 0xA6;// Local Bus Device Chip Select Register
  61      =1  // Local Bus Slave Mode //
  62      =1  sfr LSAIER              = 0xA1;// Local Bus Slave mode Action and Interrupt Enable Register
  63      =1  sfr LSCR                = 0xA2;// Local Bus Slave mode Command Register
  64      =1  sfr LSSR                = 0xA3;// Local Bus Slave mode Status Register
  65      =1  sfr XMWLR               = 0xA4;// External Master Write-read Low Register
  66      =1  sfr XMWHR               = 0xA5;// External Master Write-read High Register
  67      =1  sfr XMRLR               = 0xA6;// External Master Read-only Low Register
  68      =1  sfr XMRHR               = 0xA7;// External Master Read-only High Register
  69      =1  
  70      =1  sfr IE                  = 0xA8;// Interrupt Enable register
  71      =1  sfr LDLR                = 0xA9;// Local Bus Data Low Register
  72      =1  sfr LDHR                = 0xAA;// Local Bus Data High Register
  73      =1  sfr DMALR               = 0xAB;// Local Bus DMA Address Low Register
  74      =1  sfr DMAMR               = 0xAC;// Local Bus DMA Address Medium Register
  75      =1  sfr DMAHR               = 0xAD;// Local Bus DMA Address High Register
  76      =1  sfr TCIR                = 0xAE;// TOE Command Index Register
  77      =1  sfr     TDR                     = 0xAF;// TOE Data Register
  78      =1  
  79      =1  sfr P3                  = 0xB0;// Port 3
  80      =1  sfr CCAPL0      = 0xB1;// PCA Module 0 Compare/Capture Low Byte Register
  81      =1  sfr CCAPL1      = 0xB2;// PCA Module 1 Compare/Capture Low Byte Register
  82      =1  sfr CCAPL2      = 0xB3;// PCA Module 2 Compare/Capture Low Byte Register
  83      =1  sfr CCAPL3      = 0xB4;// PCA Module 3 Compare/Capture Low Byte Register
  84      =1  sfr CCAPL4      = 0xB5;// PCA Module 4 Compare/Capture Low Byte Register
  85      =1  sfr MCIR                = 0xB6;// MAC Command Index Register
  86      =1  sfr MDR                 = 0xB7;// MAC Data Register
  87      =1  sfr IP                  = 0xB8;// Interrupt Priority Register
  88      =1  sfr CCAPH0      = 0xB9;// PCA Module 0 Compare/Capture High Byte Register
  89      =1  sfr CCAPH1      = 0xBA;// PCA Module 1 Compare/Capture High Byte Register
  90      =1  sfr CCAPH2      = 0xBB;// PCA Module 2 Compare/Capture High Byte Register
  91      =1  sfr CCAPH3      = 0xBC;// PCA Module 3 Compare/Capture High Byte Register
  92      =1  sfr CCAPH4      = 0xBD;// PCA Module 4 Compare/Capture High Byte Register
  93      =1  sfr EPCR                = 0xBE;// Ethernet PHY Command Index Register
C51 COMPILER V8.06   UART                                                                  03/10/2026 15:30:57 PAGE 3   

  94      =1  sfr EPDR                = 0xBF;// Ethernet PHY Data Register
  95      =1  
  96      =1  sfr SCON1               = 0xC0;// UART 1 Configuration Register
  97      =1  sfr SBUF1               = 0xC1;// UART 1 Buffer Register
  98      =1  sfr CMOD                = 0xC2;// PCA Timer/Counter Mode Register
  99      =1  sfr CCON                = 0xC3;// PCA Timer/Counter Control Register
 100      =1  sfr CL                  = 0xC4;// PCA Timer/Counter Low
 101      =1  sfr CH                  = 0xC5;// PCA Timer/Counter High
 102      =1  sfr T2CON               = 0xC8;// Timer 2 Configuration Register
 103      =1  sfr T2IF                = 0xC9;// Timer 2 Interrupt Flags
 104      =1  sfr RLDL                = 0xCA;// Timer 2 Reload Low Byte
 105      =1  sfr RLDH                = 0xCB;// Timer 2 Reload High Byte
 106      =1  sfr TL2                 = 0xCC;// Timer 2 Low Byte Counter
 107      =1  sfr TH2                 = 0xCD;// Timer 2 High Byte Counter
 108      =1  sfr SPICIR              = 0xCE;// SPI Command Index Register
 109      =1  sfr SPIDR               = 0xCF;// SPI Data Register
 110      =1  
 111      =1  sfr PSW                 = 0xD0;// Program Status Word
 112      =1  sfr CCAPM0              = 0xD1;// PCA Compare/Capture Module Mode Register 0
 113      =1  sfr CCAPM1              = 0xD2;// PCA Compare/Capture Module Mode Register 1
 114      =1  sfr CCAPM2              = 0xD3;// PCA Compare/Capture Module Mode Register 2
 115      =1  sfr CCAPM3              = 0xD4;// PCA Compare/Capture Module Mode Register 3
 116      =1  sfr CCAPM4              = 0xD5;// PCA Compare/Capture Module Mode Register 4
 117      =1  sfr OWCIR               = 0xD6;// OneWire Command Index Register
 118      =1  sfr OWDR                = 0xD7;// OneWire Data Register
 119      =1  sfr WDCON               = 0xD8;// Watchdog Configuration
 120      =1  sfr CANCIR              = 0xDE;// CAN Bus Command Index Register
 121      =1  sfr CANDR               = 0xDF;// CAN Bus Data Register
 122      =1  
 123      =1  sfr ACC                 = 0xE0;// Accumulator
 124      =1  
 125      =1  // UART2 registers //
 126      =1  sfr     UR2_DLL         = 0xE1;// High Speed UART2 Divisor Latch Low Register
 127      =1  sfr     UR2_THR         = 0xE1;// High Speed UART2 Transmit Holding Register for Writing
 128      =1  sfr     UR2_RBR         = 0xE1;// High Speed UART2 Receive Buffer Register for Reading
 129      =1  sfr     UR2_DLH         = 0xE2;// High Speed UART2 Divisor Latch High Register
 130      =1  sfr     UR2_IER         = 0xE2;// High Speed UART2 Interrupt Enable Register
 131      =1  sfr     UR2_FCR         = 0xE3;// High Speed UART2 FIFO Control Register for Writing
 132      =1  sfr     UR2_IIR         = 0xE3;// High Speed UART2 Interrupt Identification Register for Reading
 133      =1  sfr     UR2_LCR         = 0xE4;// High Speed UART2 Line Control Register
 134      =1  sfr     UR2_MCR         = 0xE5;// High Speed UART2 Modem Control Register
 135      =1  sfr     UR2_LSR         = 0xE6;// High Speed UART2 Line Status Register
 136      =1  sfr     UR2_MSR         = 0xE7;// High Speed UART2 Modem Status Register
 137      =1  
 138      =1  sfr EIE                 = 0xE8;// External Interrupt Enable
 139      =1  sfr STATUS              = 0xE9;// Status Register
 140      =1  sfr MXAX                = 0xEA;// MOVX @Ri Extended Register
 141      =1  sfr TA                  = 0xEB;// Timed Access Protection
 142      =1  
 143      =1  sfr B                   = 0xF0;// B Working Register
 144      =1  sfr EIP                 = 0xF8;// Extended Interrupt Priority Register
 145      =1  sfr MD0                 = 0xF9;// MDU Data 0
 146      =1  sfr MD1                 = 0xFA;// MDU Data 1
 147      =1  sfr MD2                 = 0xFB;// MDU Data 2
 148      =1  sfr MD3                 = 0xFC;// MDU Data 3
 149      =1  sfr MD4                 = 0xFD;// MDU Data 4
 150      =1  sfr MD5                 = 0xFE;// MDU Data 5
 151      =1  sfr ARCON               = 0xFF;// MDU Control Register
 152      =1  //--------------------------------------------------------------------------
 153      =1  // P0 (0x80) Bit Registers
 154      =1  //--------------------------------------------------------------------------
 155      =1  sbit P0_0               = 0x80;
C51 COMPILER V8.06   UART                                                                  03/10/2026 15:30:57 PAGE 4   

 156      =1  sbit P0_1               = 0x81;
 157      =1  sbit P0_2               = 0x82;
 158      =1  sbit P0_3               = 0x83;
 159      =1  sbit P0_4               = 0x84;
 160      =1  sbit P0_5               = 0x85;
 161      =1  sbit P0_6               = 0x86;
 162      =1  sbit P0_7               = 0x87;
 163      =1  //--------------------------------------------------------------------------
 164      =1  // DPS (0x86) Bit Values
 165      =1  //--------------------------------------------------------------------------
 166      =1  #define SEL_    0x01
 167      =1  #define TSL_    0x20
 168      =1  #define ID0_    0x40
 169      =1  #define ID1_    0x80
 170      =1  //--------------------------------------------------------------------------
 171      =1  // PCON (0x87) Bit Values
 172      =1  //--------------------------------------------------------------------------
 173      =1  #define PMM_    0x01
 174      =1  #define STOP_   0x02
 175      =1  #define SWB_    0x04
 176      =1  #define PWE_    0x10
 177      =1  #define SMOD1_  0x40
 178      =1  #define SMOD2_  0x80
 179      =1  //--------------------------------------------------------------------------
 180      =1  // TCON (0x88) Bit Registers
 181      =1  //--------------------------------------------------------------------------
 182      =1  sbit    IT0             = 0x88;
 183      =1  sbit    IE0             = 0x89;
 184      =1  sbit    IT1             = 0x8A;
 185      =1  sbit    IE1             = 0x8B;
 186      =1  sbit    TR0             = 0x8C;
 187      =1  sbit    TF0             = 0x8D;
 188      =1  sbit    TR1             = 0x8E;
 189      =1  sbit    TF1             = 0x8F;
 190      =1  //--------------------------------------------------------------------------
 191      =1  // TMOD (0x89) Bit Values
 192      =1  //--------------------------------------------------------------------------
 193      =1  #define T0_M0_          0x01
 194      =1  #define T0_M1_          0x02
 195      =1  #define T0_CT_          0x04
 196      =1  #define T0_GATE_        0x08
 197      =1  #define T1_M0_          0x10
 198      =1  #define T1_M1_          0x20
 199      =1  #define T1_CT_          0x40
 200      =1  #define T1_GATE_        0x80
 201      =1  
 202      =1  #define T1_MASK_        0xF0
 203      =1  #define T0_MASK_        0x0F
 204      =1  //--------------------------------------------------------------------------
 205      =1  // CKCON (0x8E) Bit Values
 206      =1  //--------------------------------------------------------------------------
 207      =1  #define MD0_    0x01
 208      =1  #define MD1_    0x02
 209      =1  #define MD2_    0x04
 210      =1  #define T0M_    0x08
 211      =1  #define T1M_    0x10
 212      =1  #define T2M_    0x20
 213      =1  #define WD0_    0x40
 214      =1  #define WD1_    0x80
 215      =1  //--------------------------------------------------------------------------
 216      =1  // CSREPR (0x8F) Bit Values
 217      =1  //--------------------------------------------------------------------------
C51 COMPILER V8.06   UART                                                                  03/10/2026 15:30:57 PAGE 5   

 218      =1  #define SW_RST                          0x01
 219      =1  #define SW_RBT                          0x02
 220      =1  #define FARM                            0x04
 221      =1  #define FAES                            0x08
 222      =1  #define PMS                                     0x10
 223      =1  #define SCS_100M                        0xC0
 224      =1  #define SCS_75M                         0x80
 225      =1  #define SCS_50M                         0x40
 226      =1  #define SCS_25M                         0x00
 227      =1  //--------------------------------------------------------------------------
 228      =1  // P1 (0x90) Bit Registers
 229      =1  //--------------------------------------------------------------------------
 230      =1  sbit P1_0               = 0x90;
 231      =1  sbit P1_1               = 0x91;
 232      =1  sbit P1_2               = 0x92;
 233      =1  sbit P1_3               = 0x93;
 234      =1  sbit P1_4               = 0x94;
 235      =1  sbit P1_5               = 0x95;
 236      =1  sbit P1_6               = 0x96;
 237      =1  sbit P1_7               = 0x97;
 238      =1  //--------------------------------------------------------------------------
 239      =1  // EIF (0x91) Bit Values
 240      =1  //--------------------------------------------------------------------------
 241      =1  #define INT2F           0x01
 242      =1  #define INT3F           0x02
 243      =1  #define INT4F           0x04
 244      =1  #define INT5F           0x08
 245      =1  #define INT6F           0x10
 246      =1  //--------------------------------------------------------------------------
 247      =1  // SCON0 (0x98) Bit Registers
 248      =1  //--------------------------------------------------------------------------
 249      =1  sbit RI0                        = 0x98;
 250      =1  sbit TI0                        = 0x99;
 251      =1  sbit RB08                       = 0x9A;
 252      =1  sbit TB08                       = 0x9B;
 253      =1  sbit REN0                       = 0x9C;
 254      =1  sbit SM02                       = 0x9D;
 255      =1  sbit SM01                       = 0x9E;
 256      =1  sbit SM00                       = 0x9F;
 257      =1  //--------------------------------------------------------------------------
 258      =1  // DBAR (0x9A) Bit Values
 259      =1  //--------------------------------------------------------------------------
 260      =1  #define BUS_REQ                         0x01
 261      =1  #define BUS_GRANT                       0x80
 262      =1  //--------------------------------------------------------------------------
 263      =1  // ACON (0x9D) Bit Values
 264      =1  //--------------------------------------------------------------------------
 265      =1  #define FLAT_MODE                       0x02
 266      =1  #define LARGE_MODE                      0x00
 267      =1  //--------------------------------------------------------------------------
 268      =1  // PISSR1 (0x9E) Bit Values
 269      =1  //--------------------------------------------------------------------------
 270      =1  #define LB_INT_STU                      0x01
 271      =1  #define LB_EXT_INT_STU          0x02
 272      =1  #define ETH_INT_STU                     0x04
 273      =1  #define TOE_INT_STU                     0x08
 274      =1  #define OW_INT_STU                      0x10
 275      =1  #define SPI_INT_STU                     0x20
 276      =1  #define I2C_INT_STU                     0x40
 277      =1  #define CAN_INT_STU                     0x80
 278      =1  //--------------------------------------------------------------------------
 279      =1  // PISSR2 (0x9F) Bit Values
C51 COMPILER V8.06   UART                                                                  03/10/2026 15:30:57 PAGE 6   

 280      =1  //--------------------------------------------------------------------------
 281      =1  #define UART2_INT_STU           0x01
 282      =1  //--------------------------------------------------------------------------
 283      =1  // P2 (0xA0) Bit Registers
 284      =1  //--------------------------------------------------------------------------
 285      =1  sbit P2_0               = 0xA0;
 286      =1  sbit P2_1               = 0xA1;
 287      =1  sbit P2_2               = 0xA2;
 288      =1  sbit P2_3               = 0xA3;
 289      =1  sbit P2_4               = 0xA4;
 290      =1  sbit P2_5               = 0xA5;
 291      =1  sbit P2_6               = 0xA6;
 292      =1  sbit P2_7               = 0xA7;
 293      =1  //--------------------------------------------------------------------------
 294      =1  // IE (0xA8) Bit Registers
 295      =1  //--------------------------------------------------------------------------
 296      =1  sbit EX0                    = 0xA8;                                                       // 1=Enable Exte
             -rnal interrupt 0
 297      =1  sbit ET0                    = 0xA9;                                                       // 1=Enable Time
             -r 0 interrupt
 298      =1  sbit EX1                    = 0xAA;                                                       // 1=Enable Exte
             -rnal interrupt 1
 299      =1  sbit ET1                    = 0xAB;                                                       // 1=Enable Time
             -r 1 interrupt
 300      =1  sbit ES0                    = 0xAC;                                                       // 1=Enable Seri
             -al port 0 interrupt
 301      =1  sbit ET2                    = 0xAD;                                                       // 1=Enable Time
             -r 2 interrupt
 302      =1  sbit ES1                    = 0xAE;                                                       // 1=Enable Seri
             -al port 1 interrupt
 303      =1  sbit EA                     = 0xAF;                                                       // 0=Disabe all 
             -interrupts
 304      =1  //--------------------------------------------------------------------------
 305      =1  // P3 (0xB0) Bit Registers (Mnemonics & Ports)
 306      =1  //--------------------------------------------------------------------------
 307      =1  sbit P3_0               = 0xB0;
 308      =1  sbit P3_1               = 0xB1;
 309      =1  sbit P3_2               = 0xB2;
 310      =1  sbit P3_3               = 0xB3;
 311      =1  sbit P3_4               = 0xB4;
 312      =1  sbit P3_5               = 0xB5;
 313      =1  sbit P3_6               = 0xB6;
 314      =1  sbit P3_7               = 0xB7;
 315      =1  
 316      =1  sbit RXD                    = 0xB0;                                                       // Serial data i
             -nput
 317      =1  sbit TXD                    = 0xB1;                                                       // Serial data o
             -utput
 318      =1  sbit INT0                   = 0xB2;                                                       // External inte
             -rrupt 0
 319      =1  sbit INT1                   = 0xB3;                                                       // External inte
             -rrupt 1
 320      =1  sbit T0                     = 0xB4;                                                       // Timer 0 exter
             -nal input
 321      =1  sbit T1                     = 0xB5;                                                       // Timer 1 exter
             -nal input
 322      =1  sbit WR                     = 0xB6;                                                       // External data
             - memory write strobe
 323      =1  sbit RD                     = 0xB7;                                                       // External data
             - memory read strobe
 324      =1  //--------------------------------------------------------------------------
 325      =1  // IP (0xB8) Bit Registers
C51 COMPILER V8.06   UART                                                                  03/10/2026 15:30:57 PAGE 7   

 326      =1  //--------------------------------------------------------------------------
 327      =1  sbit PX0                = 0xB8;
 328      =1  sbit PT0                = 0xB9;
 329      =1  sbit PX1                = 0xBA;
 330      =1  sbit PT1                = 0xBB;
 331      =1  sbit PS0                = 0xBC;
 332      =1  sbit PT2                = 0xBD;
 333      =1  sbit PS1                = 0xBE;
 334      =1  //--------------------------------------------------------------------------
 335      =1  // SCON1 (0xC0) Bit Registers
 336      =1  //--------------------------------------------------------------------------
 337      =1  sbit RI1                = 0xC0;
 338      =1  sbit TI1                = 0xC1;
 339      =1  sbit RB18               = 0xC2;
 340      =1  sbit TB18               = 0xC3;
 341      =1  sbit REN1               = 0xC4;
 342      =1  sbit SM12               = 0xC5;
 343      =1  sbit SM11               = 0xC6;
 344      =1  sbit SM10               = 0xC7;
 345      =1  //--------------------------------------------------------------------------
 346      =1  // CMOM (0xC2) Bit Values
 347      =1  //--------------------------------------------------------------------------
 348      =1  #define PCA_ECF                 0x01
 349      =1  #define PCA_T0_OF               0x08
 350      =1  #define PCA_EXT_CLK             0x0E
 351      =1  #define PCA_GATE_OFF    0x80
 352      =1  //--------------------------------------------------------------------------
 353      =1  // CCON (0xC3) Bit Values
 354      =1  //--------------------------------------------------------------------------
 355      =1  #define PCA_CCF0                0x01
 356      =1  #define PCA_CCF1                0x02
 357      =1  #define PCA_CCF2                0x04
 358      =1  #define PCA_CCF3                0x08
 359      =1  #define PCA_CCF4                0x10
 360      =1  #define PCA_CR                  0x40
 361      =1  #define PCA_CF                  0x80
 362      =1  //--------------------------------------------------------------------------
 363      =1  // T2CON (0xC8) Bit Registers
 364      =1  //--------------------------------------------------------------------------
 365      =1  sbit CPRL2              = 0xC8;
 366      =1  sbit CT2                = 0xC9;
 367      =1  sbit TR2                = 0xCA;
 368      =1  sbit EXEN2              = 0xCB;
 369      =1  sbit TCLK               = 0xCC;
 370      =1  sbit RCLK               = 0xCD;
 371      =1  sbit EXF2               = 0xCE;
 372      =1  sbit TF2                = 0xCF;
 373      =1  //--------------------------------------------------------------------------
 374      =1  // PSW (0xD0) Bit Registers
 375      =1  //--------------------------------------------------------------------------
 376      =1  sbit P                  = 0xD0;
 377      =1  sbit F1                 = 0xD1;
 378      =1  sbit OV                 = 0xD2;
 379      =1  sbit RS0                = 0xD3;
 380      =1  sbit RS1                = 0xD4;
 381      =1  sbit F0                 = 0xD5;
 382      =1  sbit AC                 = 0xD6;
 383      =1  sbit CY                 = 0xD7;
 384      =1  //--------------------------------------------------------------------------
 385      =1  // CCAPM0-4 (0xD1-0xD5) Bit Values
 386      =1  //--------------------------------------------------------------------------
 387      =1  #define ECCFs           0x01
C51 COMPILER V8.06   UART                                                                  03/10/2026 15:30:57 PAGE 8   

 388      =1  #define PWMs            0x02
 389      =1  #define TOGs            0x04
 390      =1  #define MATs            0x08
 391      =1  #define CAPNs           0x10
 392      =1  #define CAPPs           0x20
 393      =1  #define ECOMs           0x40
 394      =1  #define CEXs            0x80
 395      =1  //--------------------------------------------------------------------------
 396      =1  // PSW (0xD8) Bit Registers
 397      =1  //--------------------------------------------------------------------------
 398      =1  sbit RWT                = 0xD8;
 399      =1  sbit EWT                = 0xD9;
 400      =1  sbit WTRF               = 0xDA;
 401      =1  sbit WDIF               = 0xDB;
 402      =1  
 403      =1  //--------------------------------------------------------------------------
 404      =1  // Interrupt Vectors:
 405      =1  // Interrupt Address = (Number * 8) + 3
 406      =1  //--------------------------------------------------------------------------
 407      =1  #define IE0_VECTOR            0                                                           // 0x03 External
             - Interrupt 0
 408      =1  #define TF0_VECTOR            1                                                           // 0x0B Timer 0
 409      =1  #define IE1_VECTOR            2                                                           // 0x13 External
             - Interrupt
 410      =1  #define TF1_VECTOR            3                                                           // 0x1B Timer 1
 411      =1  #define SIO_VECTOR            4                                                           // 0x23 Serial p
             -ort
 412      =1  //--------------------------------------------------------------------------
 413      =1  // UR2_IER (0xE2) Bit Values
 414      =1  //--------------------------------------------------------------------------
 415      =1  #define UR2_RDI_ENB             0x01
 416      =1  #define UR2_THRI_ENB    0x02
 417      =1  #define UR2_RLSI_ENB    0x04
 418      =1  #define UR2_MSI_ENB             0x08
 419      =1  //--------------------------------------------------------------------------
 420      =1  // UR2_IIR (0xE3) Bit Values
 421      =1  //--------------------------------------------------------------------------
 422      =1  #define UR2_NONE_INTR           0x01
 423      =1  #define UR2_RLS_INTR            0x06
 424      =1  #define UR2_RD_TRIG_INTR        0x04
 425      =1  #define UR2_RD_TI_INTR          0x0C
 426      =1  #define UR2_THRE_INTR           0x02
 427      =1  #define UR2_MS_INTR                     0x00
 428      =1  //--------------------------------------------------------------------------
 429      =1  // UR2_FCR (0xE3) Bit Values
 430      =1  //--------------------------------------------------------------------------
 431      =1  #define UR2_FIFO_MODE   0x01
 432      =1  #define UR2_RXFIFO_RST  0x02
 433      =1  #define UR2_TXFIFO_RST  0x04
 434      =1  #define UR2_TRIG_01             0x00
 435      =1  #define UR2_TRIG_04             0x40
 436      =1  #define UR2_TRIG_08             0x80
 437      =1  #define UR2_TRIG_14             0xC0
 438      =1  //--------------------------------------------------------------------------
 439      =1  // UR2_LCR (0xE4) Bit Values
 440      =1  //--------------------------------------------------------------------------
 441      =1  #define UR2_CHAR_5                      0x00
 442      =1  #define UR2_CHAR_6                      0x01
 443      =1  #define UR2_CHAR_7                      0x02
 444      =1  #define UR2_CHAR_8                      0x03
 445      =1  #define UR2_STOP_10                     0x00
 446      =1  #define UR2_STOP_15                     0x04
C51 COMPILER V8.06   UART                                                                  03/10/2026 15:30:57 PAGE 9   

 447      =1  #define UR2_PARITY_ENB          0x08
 448      =1  #define UR2_EVEN_PARITY         0x10
 449      =1  #define UR2_STICK_PARITY        0x20
 450      =1  #define UR2_BREAK_ENB           0x40
 451      =1  #define UR2_DLAB_ENB            0x80
 452      =1  //--------------------------------------------------------------------------
 453      =1  // UR2_MCR (0xE5) Bit Values
 454      =1  //--------------------------------------------------------------------------
 455      =1  #define UR2_DTR                         0x01
 456      =1  #define UR2_RTS                         0x02
 457      =1  #define UR2_OUT1                        0x04
 458      =1  #define UR2_OUT2                        0x08
 459      =1  #define UR2_LOOPBACK            0x10
 460      =1  #define UR2_RS485_RECEIVE       0x40
 461      =1  #define UR2_RS485_DRIVE         0x80
 462      =1  //--------------------------------------------------------------------------
 463      =1  // UR2_LSR (0xE6) Bit Values
 464      =1  //--------------------------------------------------------------------------
 465      =1  #define UR2_DR                          0x01
 466      =1  #define UR2_OE                          0x02
 467      =1  #define UR2_PE                          0x04
 468      =1  #define UR2_FE                          0x08
 469      =1  #define UR2_BI                          0x10
 470      =1  #define UR2_THRE                        0x20
 471      =1  #define UR2_TEMT                        0x40
 472      =1  #define UR2_FRAME_ERR           0x80
 473      =1  //--------------------------------------------------------------------------
 474      =1  // UR2_MSR (0xE7) Bit Values
 475      =1  //--------------------------------------------------------------------------
 476      =1  #define UR2_DCTS                        0x01
 477      =1  #define UR2_DDSR                        0x02
 478      =1  #define UR2_TERI                        0x04
 479      =1  #define UR2_DDCD                        0x08
 480      =1  #define UR2_CTS                         0x10
 481      =1  #define UR2_DSR                         0x20
 482      =1  #define UR2_RI                          0x40
 483      =1  #define UR2_DCD                         0x80
 484      =1  //--------------------------------------------------------------------------
 485      =1  // EIE (0xE8) Bit Registers
 486      =1  //--------------------------------------------------------------------------
 487      =1  sbit EINT2              = 0xE8;
 488      =1  sbit EINT3              = 0xE9;
 489      =1  sbit EINT4              = 0xEA;
 490      =1  sbit EINT5              = 0xEB;
 491      =1  sbit EINT6              = 0xEC;
 492      =1  sbit EWDI               = 0xED;
 493      =1  //--------------------------------------------------------------------------
 494      =1  // EIP (0xF8) Bit Registers
 495      =1  //--------------------------------------------------------------------------
 496      =1  sbit PINT2              = 0xF8;
 497      =1  sbit PINT3              = 0xF9;
 498      =1  sbit PINT4              = 0xFA;
 499      =1  sbit PINT5              = 0xFB;
 500      =1  sbit PINT6              = 0xFC;
 501      =1  sbit PWDI               = 0xFD;
 502      =1  //--------------------------------------------------------------------------
 503      =1  //--------------------------------------------------------------------------
 504      =1  #endif
  21          #include    "types.h"
   1      =1  //----------------------------------------------------------------------------------------
   2      =1  //     Copyright (c) 2005       Simtek, Incorporated      All rights reserved.
   3      =1  //
C51 COMPILER V8.06   UART                                                                  03/10/2026 15:30:57 PAGE 10  

   4      =1  //     This is unpublished proprietary source code of Simtek, Inc
   5      =1  //
   6      =1  //     The copyright notice above does not evidence any actual or intended
   7      =1  //     publication of such source code.
   8      =1  //----------------------------------------------------------------------------------------
   9      =1  // Module Name : types.h
  10      =1  // Purpose     : Definition of type.
  11      =1  // Author      : Robin Lee
  12      =1  // Date        : 2005-12-28
  13      =1  // Notes       : None.
  14      =1  // $Log: types.h,v $
  15      =1  //----------------------------------------------------------------------------------------
  16      =1  // Revision 1.2  2006/05/18 05:02:30  Louis
  17      =1  // no message
  18      =1  //----------------------------------------------------------------------------------------
  19      =1  // Revision 1.1  2006/04/07 11:36:17  robin6633
  20      =1  // no message
  21      =1  //----------------------------------------------------------------------------------------
  22      =1  
  23      =1  #ifndef TYPES_H
  24      =1  #define TYPES_H
  25      =1  
  26      =1  typedef unsigned short int          bool;                                                 // boolean
  27      =1  typedef unsigned char               byte;                                                 //  8-bit unsign
             -ed
  28      =1  typedef unsigned short int          uint;                                                 // 16-bit unsign
             -ed
  29      =1  typedef short int                   sint;                                                 // 16-bit signed
  30      =1  typedef unsigned long               ulong;                                                // 32-bit unsign
             -ed
  31      =1  typedef unsigned short int          word;                                                 // 16-bit unsign
             -ed
  32      =1  
  33      =1  #ifndef NULL
  34      =1    #define NULL ((void *) 0L)
  35      =1  #endif
  36      =1  
  37      =1  #define TRUE                  1
  38      =1  #define FALSE                 0
  39      =1  #define ON                    1
  40      =1  #define OFF                   0
  41      =1  #define Client                1
  42      =1  #define Server                0
  43      =1  
  44      =1  // Bit Definitions for Bitwise Operation //
  45      =1  #define BIT0            0x01
  46      =1  #define BIT1            0x02
  47      =1  #define BIT2            0x04
  48      =1  #define BIT3            0x08
  49      =1  #define BIT4            0x10
  50      =1  #define BIT5            0x20
  51      =1  #define BIT6            0x40
  52      =1  #define BIT7            0x80
  53      =1  #define BIT8            0x0100
  54      =1  #define BIT9            0x0200
  55      =1  #define BIT10           0x0400
  56      =1  #define BIT11           0x0800
  57      =1  #define BIT12           0x1000
  58      =1  #define BIT13           0x2000
  59      =1  #define BIT14           0x4000
  60      =1  #define BIT15           0x8000
  61      =1  #define BIT16           0x00010000
C51 COMPILER V8.06   UART                                                                  03/10/2026 15:30:57 PAGE 11  

  62      =1  #define BIT17           0x00020000
  63      =1  #define BIT18           0x00040000
  64      =1  #define BIT19           0x00080000
  65      =1  #define BIT20           0x00100000
  66      =1  #define BIT21           0x00200000
  67      =1  #define BIT22           0x00400000
  68      =1  #define BIT23           0x00800000
  69      =1  #define BIT24           0x01000000
  70      =1  #define BIT25           0x02000000
  71      =1  #define BIT26           0x04000000
  72      =1  #define BIT27           0x08000000
  73      =1  #define BIT28           0x10000000
  74      =1  #define BIT29           0x20000000
  75      =1  #define BIT30           0x40000000
  76      =1  #define BIT31           0x80000000
  77      =1  
  78      =1  #define LOW_BYTE(dat)   (byte) (dat & 0x00FF)
  79      =1  #define HIGH_BYTE(dat)  (byte)((dat & 0xFF00) >> 8)
  80      =1  
  81      =1  #define U32BYTE0(dat)   (byte) (dat  & 0x000000FF)
  82      =1  #define U32BYTE1(dat)   (byte)((dat  & 0x0000FF00) >> 8)
  83      =1  #define U32BYTE2(dat)   (byte)((dat  & 0x00FF0000) >> 16)
  84      =1  #define U32BYTE3(dat)   (byte)((dat  & 0xFF000000) >> 24)
  85      =1   
  86      =1  // Keil compiler user define //
  87      =1  #define     KEIL_CPL
  88      =1  
  89      =1  #ifdef KEIL_CPL
  90      =1   #define XDATA    xdata
  91      =1   #define IDATA    idata
  92      =1   #define BDATA    bdata
  93      =1   #define CODE     code
  94      =1   #define FAR      far
  95      =1  #else
           =1  #define XDATA
           =1  #define IDATA
           =1  #define BDATA
           =1  #define CODE
           =1  #define FAR
           =1 #endif
 102      =1  
 103      =1  // Serial interface command direction //
 104      =1  #define     SI_WR                   BIT0
 105      =1  #define     SI_RD                   BIT1
 106      =1  
 107      =1  #define     FLASH_WR_ENB            (PCON |= PWE_)
 108      =1  #define     FLASH_WR_DISB           (PCON &= ~PWE_)
 109      =1  
 110      =1  #endif  // end of TYPES_H //
  22          #include    "uart.h"
   1      =1  //----------------------------------------------------------------------------------------
   2      =1  //     Copyright (c) 2005     ASIX Electronic Corporation      All rights reserved.
   3      =1  //
   4      =1  //     This is unpublished proprietary source code of ASIX Electronic Corporation
   5      =1  //
   6      =1  //     The copyright notice above does not evidence any actual or intended
   7      =1  //     publication of such source code.
   8      =1  //----------------------------------------------------------------------------------------
   9      =1  //
  10      =1  //========================================================================================
  11      =1  // Module Name : uart.h
  12      =1  // Purpose     : A header file of uart.c includes UART0 and UART1 module.
C51 COMPILER V8.06   UART                                                                  03/10/2026 15:30:57 PAGE 12  

  13      =1  // Author      : Robin Lee
  14      =1  // Date        : 2006-01-10
  15      =1  // Notes       :
  16      =1  // $Log: uart.h,v $
  17      =1  // Revision 1.1  2006/05/12 14:24:47  robin6633
  18      =1  // no message
  19      =1  //
  20      =1  // Revision 1.3  2006/05/03 02:46:00  robin6633
  21      =1  // Changed the the function name UART_GetBufCount()
  22      =1  // to UART_GetRxBufCount() .
  23      =1  //
  24      =1  // Revision 1.2  2006/05/02 01:43:45  robin6633
  25      =1  // Add an expanding function to get the counter value of UART software buffer.
  26      =1  //
  27      =1  // Revision 1.1  2006/04/07 11:39:14  robin6633
  28      =1  // no message
  29      =1  //
  30      =1  //========================================================================================
  31      =1  
  32      =1  #ifndef __UART_H__
  33      =1  #define __UART_H__
  34      =1  
  35      =1  // INCLUDE FILE DECLARATIONS //
  36      =1  #include        "uart_cfg.h"
   1      =2  /*
   2      =2   *********************************************************************************
   3      =2   *     Copyright (c) 2005       ASIX Electronic Corporation      All rights reserved.
   4      =2   *
   5      =2   *     This is unpublished proprietary source code of ASIX Electronic Corporation
   6      =2   *
   7      =2   *     The copyright notice above does not evidence any actual or intended
   8      =2   *     publication of such source code.
   9      =2   *********************************************************************************
  10      =2   */
  11      =2  /*================================================================================
  12      =2   * Module Name : uart_cfg.h
  13      =2   * Purpose     : Configuration setting of UART0 and UART1 module.
  14      =2   * Author      : Robin Lee
  15      =2   * Date        : 2006-01-10
  16      =2   * Notes       :
  17      =2   * $Log: uart_cfg.h,v $
  18      =2   * Revision 1.2  2006/05/18 02:15:57  robin6633
  19      =2   * 1.Disabled UART1.
  20      =2   *
  21      =2   * Revision 1.1  2006/05/12 14:24:47  robin6633
  22      =2   * no message
  23      =2   *
  24      =2   * Revision 1.1  2006/04/07 11:39:14  robin6633
  25      =2   * no message
  26      =2   *
  27      =2   *================================================================================
  28      =2   */
  29      =2  #ifndef UART_CFG_H
  30      =2  #define UART_CFG_H
  31      =2  
  32      =2  /* INCLUDE FILE DECLARATIONS */
  33      =2  
  34      =2  
  35      =2  /* NAMING CONSTANT DECLARATIONS */
  36      =2  #define UART0_ENABLE            1       // 1:enable UART0 ; 0:disable UART0
  37      =2  #define UART1_ENABLE            1       // 1:enable UART1 ; 0:disable UART1
  38      =2  #define HSUR_ENABLE         0   // 1:enable Hihg Speed UART ; 0:disable Hihg Speed UART
C51 COMPILER V8.06   UART                                                                  03/10/2026 15:30:57 PAGE 13  

  39      =2  #define UART_PMM_ENABLE         0       // 1:use UART in PMM mode ; 0:disable
  40      =2  #define     HSUR_RS485_ENABLE       0     // 1:enable RS485 Driver and Receiver Settings 
  41      =2  
  42      =2  /* MACRO DECLARATIONS */
  43      =2  
  44      =2  
  45      =2  /* TYPE DECLARATIONS */
  46      =2  
  47      =2  
  48      =2  /* GLOBAL VARIABLES */
  49      =2  
  50      =2  
  51      =2  /* EXPORTED SUBPROGRAM SPECIFICATIONS */
  52      =2  
  53      =2  
  54      =2  #endif /* End of UART_CFG_H */
  37      =1  
  38      =1  // NAMING CONSTANT DECLARATIONS //
  39      =1  #define MAX_TX_UART0_BUF_SIZE   256 //512
  40      =1  #define MAX_TX_UART0_MASK               (MAX_TX_UART0_BUF_SIZE - 1)
  41      =1  #define MAX_RX_UART0_BUF_SIZE   256 //512
  42      =1  #define MAX_RX_UART0_MASK               (MAX_RX_UART0_BUF_SIZE - 1)
  43      =1  
  44      =1  #define MAX_TX_UART1_BUF_SIZE   256
  45      =1  #define MAX_TX_UART1_MASK               (MAX_TX_UART1_BUF_SIZE - 1)
  46      =1  #define MAX_RX_UART1_BUF_SIZE   256
  47      =1  #define MAX_RX_UART1_MASK               (MAX_RX_UART1_BUF_SIZE - 1)
  48      =1  
  49      =1  /* GLOBAL VARIABLES */
  50      =1  extern uint  UART0_RxCount;
  51      =1  extern byte  uart0_RxBuf[MAX_RX_UART0_BUF_SIZE];
  52      =1  extern uint  uart0_RxCount;
  53      =1  extern uint  uart0_RxTail;
  54      =1  extern byte  uart0_RxBuf[];
  55      =1  extern uint  uart0_RxHead;
  56      =1  
  57      =1  extern uint  uart1_RxCount;
  58      =1  extern uint  uart1_RxTail;
  59      =1  extern byte  uart1_RxBuf[MAX_RX_UART1_BUF_SIZE];
  60      =1  extern uint  uart1_RxHead;
  61      =1  
  62      =1  #define SCS100M                                    0xC0
  63      =1  #define SCSx75M                                    0x80
  64      =1  #define SCSx50M                                    0x40
  65      =1  #define SCSx25M                                    0x00
  66      =1  
  67      =1  #define Baud___1200                                0x00
  68      =1  #define Baud___2400                                0x01
  69      =1  #define Baud___4800                                0x02
  70      =1  #define Baud___9600                                0x03
  71      =1  #define Baud__19200                                0x04
  72      =1  #define Baud__28800                                0x05
  73      =1  #define Baud__38400                                0x06
  74      =1  #define Baud__57600                                0x07
  75      =1  #define Baud__76800                                0x08
  76      =1  #define Baud__94750                                0x09
  77      =1  #define Baud_115200                                0x0A
  78      =1  
  79      =1  #define F_25_B___1200                              Baud___1200 | SCSx25M
  80      =1  #define F_25_B___2400                              Baud___2400 | SCSx25M
  81      =1  #define F_25_B___4800                              Baud___4800 | SCSx25M
  82      =1  #define F_25_B___9600                              Baud___9600 | SCSx25M
C51 COMPILER V8.06   UART                                                                  03/10/2026 15:30:57 PAGE 14  

  83      =1  #define F_25_B__19200                              Baud__19200 | SCSx25M
  84      =1  #define F_25_B__28800                              Baud__28800 | SCSx25M
  85      =1  #define F_25_B__38400                              Baud__38400 | SCSx25M
  86      =1  #define F_25_B__57600                              Baud__57600 | SCSx25M
  87      =1  #define F_25_B__76800                              Baud__76800 | SCSx25M
  88      =1  #define F_25_B__94750                              Baud__94750 | SCSx25M
  89      =1  #define F_25_B_115200                              Baud_115200 | SCSx25M
  90      =1  #define F_50_B___1200                              Baud___1200 | SCSx50M
  91      =1  #define F_50_B___2400                              Baud___2400 | SCSx50M
  92      =1  #define F_50_B___4800                              Baud___4800 | SCSx50M
  93      =1  #define F_50_B___9600                              Baud___9600 | SCSx50M
  94      =1  #define F_50_B__19200                              Baud__19200 | SCSx50M
  95      =1  #define F_50_B__28800                              Baud__28800 | SCSx50M
  96      =1  #define F_50_B__38400                              Baud__38400 | SCSx50M
  97      =1  #define F_50_B__57600                              Baud__57600 | SCSx50M
  98      =1  #define F_50_B__76800                              Baud__76800 | SCSx50M
  99      =1  #define F_50_B__94750                              Baud__94750 | SCSx50M
 100      =1  #define F_50_B_115200                              Baud_115200 | SCSx50M
 101      =1  #define F100_B___1200                              Baud___1200 | SCS100M
 102      =1  #define F100_B___2400                              Baud___2400 | SCS100M
 103      =1  #define F100_B___4800                              Baud___4800 | SCS100M
 104      =1  #define F100_B___9600                              Baud___9600 | SCS100M
 105      =1  #define F100_B__19200                              Baud__19200 | SCS100M
 106      =1  #define F100_B__28800                              Baud__28800 | SCS100M
 107      =1  #define F100_B__38400                              Baud__38400 | SCS100M
 108      =1  #define F100_B__57600                              Baud__57600 | SCS100M
 109      =1  #define F100_B__76800                              Baud__76800 | SCS100M
 110      =1  #define F100_B__94750                              Baud__94750 | SCS100M
 111      =1  #define F100_B_115200                              Baud_115200 | SCS100M
 112      =1  
 113      =1  // EXPORTED SUBPROGRAM SPECIFICATIONS //
 114      =1         void  uart_Init(byte port, baudrate, parity);
 115      =1  extern void  uart_ShowBuffer(byte* pd, byte eol);
 116      =1         bool  uart_ParityChk(char checkbyte);
 117      =1         bool  uart_SetPort(byte portNum);
 118      =1  // UART 0 routines
 119      =1  extern uint  uart0_PutChar(char c);
 120      =1  extern uint  uart0_GetKey(void);
 121      =1  
 122      =1  extern byte  uart0_setBaudRate(byte baudrate);
 123      =1  extern void  uart0_PutStr(byte* pData, byte cnt);
 124      =1  extern void  uart0_GetBuf(byte* pData, byte cnt);
 125      =1  extern void  uart0_RxBufUpdate(byte cnt);
 126      =1  extern byte  uart0_RxPtrSet(byte c);
 127      =1  extern void  uart0_RxBufSet(byte c, uint  len);
 128      =1  extern byte  uart0_RxBufCmp(byte *pData,byte len);
 129      =1  extern uint  uart0_GetByteCount(void);
 130      =1  extern void  uart0_DisplayRxPointers(void);
 131      =1  extern void  uart0_ShowRxBuffer(void);
 132      =1         byte  uart0_TxChk(void);
 133      =1         void  uart0_SetMode(byte mode);
 134      =1  uint  UA0_GetCount(void);
 135      =1  extern char  uart0_NoBlockGetkey(void);
 136      =1  // UART 1 routines
 137      =1  extern uint  uart1_PutChar(char c);
 138      =1  extern uint  uart1_GetKey(void);
 139      =1  extern void  uart1_PutStr(byte* pData, byte cnt);
 140      =1  extern void  uart1_GetBuf(byte* pData, byte cnt);
 141      =1  extern void  uart1_RxBufUpdate(byte cnt);
 142      =1  extern byte  uart1_RxPtrSet(byte c);
 143      =1  extern void  uart1_RxBufSet(byte c, uint  len);
 144      =1  extern byte  uart1_RxBufCmp(byte *pData,byte len);
C51 COMPILER V8.06   UART                                                                  03/10/2026 15:30:57 PAGE 15  

 145      =1  extern uint  uart1_GetByteCount(void);
 146      =1  extern void  uart1_DisplayRxPointers(byte crlf);
 147      =1         bool  UART_ParityChk(char checkbyte);
 148      =1         byte  uart1_TxChk(void);
 149      =1         void  uart1_SetMode(byte mode);
 150      =1  uint  UA1_GetCount(void);
 151      =1  extern char  uart1_NoBlockGetkey(void);
 152      =1  //
 153      =1  void  PMM_Uart0Init(void);
 154      =1  
 155      =1  #endif // End of __UART_H__ //
 156      =1  // End of uart.h //
  23          #include    "ax11000_cfg.h"
   1      =1  /*
   2      =1   *********************************************************************************
   3      =1   *     Copyright (c) 2005   ASIX Electronic Corporation      All rights reserved.
   4      =1   *
   5      =1   *     This is unpublished proprietary source code of ASIX Electronic Corporation
   6      =1   *
   7      =1   *     The copyright notice above does not evidence any actual or intended
   8      =1   *     publication of such source code.
   9      =1   *********************************************************************************
  10      =1   */
  11      =1  /*================================================================================
  12      =1   * Module Name : ax11000_cfg.h
  13      =1   * Purpose     : Configuration setting of AX11000 module.
  14      =1   * Author      : Robin Lee
  15      =1   * Date        : 2006-01-06
  16      =1   * Notes       : None.
  17      =1   * $Log: ax11000_cfg.h,v $
  18      =1   * Revision 1.3  2006/05/19 03:41:49  robin6633
  19      =1   * 1.Enabled AX_WATCHDOG_ENB.
  20      =1   *
  21      =1   * Revision 1.2  2006/05/18 05:02:29  Louis
  22      =1   * no message
  23      =1   *
  24      =1   *================================================================================
  25      =1   */
  26      =1  #ifndef AX11000_CFG_H
  27      =1  #define AX11000_CFG_H
  28      =1  
  29      =1  /* INCLUDE FILE DECLARATIONS */
  30      =1  
  31      =1  
  32      =1  /* NAMING CONSTANT DECLARATIONS */
  33      =1  #define         GET_SYS_VALUE           1 // 1:get the system globe value information
  34      =1  #define         AX_SWRST_ENB            1 // 1:use software reset function ; 0:not use
  35      =1  #define         AX_SWRBT_ENB            1 // 1:use software reboot function ; 0:not use
  36      =1  #define         STOE_ENABLE                     1
  37      =1  #define         AX_WATCHDOG_ENB         1 // 1:involve watchdog function ; 0:not use
  38      =1  
  39      =1  /* MACRO DECLARATIONS */
  40      =1  #define         AX_DBG_LED(value)       {P1 = value;} // debug LED port, default is P1
  41      =1  
  42      =1  
  43      =1  /* TYPE DECLARATIONS */
  44      =1  
  45      =1  
  46      =1  /* GLOBAL VARIABLES */
  47      =1  
  48      =1  
  49      =1  /* EXPORTED SUBPROGRAM SPECIFICATIONS */
C51 COMPILER V8.06   UART                                                                  03/10/2026 15:30:57 PAGE 16  

  50      =1  
  51      =1  
  52      =1  #endif /* End of AX11000_CFG_H */
  24          #include    "printd.h"
   1      =1  //--------------------------------------------------------------------------------
   2      =1  //     Copyright (c) 2005   ASIX Electronic Corporation      All rights reserved.
   3      =1  //
   4      =1  //     This is unpublished proprietary source code of ASIX Electronic Corporation
   5      =1  //
   6      =1  //     The copyright notice above does not evidence any actual or intended
   7      =1  //     publication of such source code.
   8      =1  //--------------------------------------------------------------------------------
   9      =1  //================================================================================
  10      =1  // File Name : printd.h
  11      =1  // Purpose   :
  12      =1  // Author    :
  13      =1  // Date      :
  14      =1  // Notes     :
  15      =1  //    printd("justif: \"%-10s\"\n", "left");    =>    justif: "left      "
  16      =1  //    printd("justif: \"%10s\"\n", "right");    =>    justif: "     right"
  17      =1  //    printd(" 3: %04d zero padded\n",   3);     =>     3: 0003 zero padded
  18      =1  //    printd(" 3: %-4d left justif.\n",  3);    =>     3: 3    left justif.
  19      =1  //    printd(" 3: %4d right justif.\n",  3);    =>     3:    3 right justif.
  20      =1  //    printd("-3: %04d zero padded\n",  -3);    =>    -3: -003 zero padded
  21      =1  //    printd("-3: %-4d left justif.\n", -3);    =>    -3: -3   left justif.
  22      =1  //    printd("-3: %4d right justif.\n", -3);    =>    -3:   -3 right justif.
  23      =1  //================================================================================
  24      =1  //
  25      =1  #ifndef PRINTD_H
  26      =1  #define PRINTD_H
  27      =1  
  28      =1  // INCLUDE FILE DECLARATIONS //
  29      =1  
  30      =1  // NAMING CONSTANT DECLARATIONS //
  31      =1  #define UART0                             0
  32      =1  #define UART1                             1
  33      =1  #define DEBUG_PORT                      (UART1)
  34      =1  #define PAD_RIGHT                               1
  35      =1  #define PAD_ZERO                                2
  36      =1  #define PRINT_BUF_LEN                     18
  37      =1  
  38      =1  #define DRIVER_MSG                              0x0001
  39      =1  #define INIT_MSG                                0x0002
  40      =1  #define TX_MSG                                  0x0004
  41      =1  #define RX_MSG                                  0x0008
  42      =1  #define INT_MSG                                 0x0010
  43      =1  #define ERROR_MSG                               0x0020
  44      =1  #define WARNING_MSG                             0x0040
  45      =1  #define DEBUG_MSG                               0x0080
  46      =1  #define TCP_MSG                                 0x0100
  47      =1  #define ALL_MSG                                 0x01FF
  48      =1  #define NO_MSG                                  0x0000
  49      =1  #define DEFAULT_MSG                             (ALL_MSG) 
  50      =1  #define DEBUG_FLAGS                             DEFAULT_MSG
  51      =1  #define DEBUG_DISPLAY_DIAG              1
  52      =1  
  53      =1  // MACRO DECLARATIONS //
  54      =1  #if   ( DEBUG_PORT == UART0 )
           =1 #define     DEBUG_PORT_PUTCHR(x)    uart0_PutChar(x)
           =1 #else
  57      =1  #define DEBUG_PORT_PUTCHR(x)    uart1_PutChar(x)
  58      =1  #endif
C51 COMPILER V8.06   UART                                                                  03/10/2026 15:30:57 PAGE 17  

  59      =1  
  60      =1  #if DEBUG_DISPLAY_DIAG
  61      =1  #define PRINTD(flag,x)                  if(flag & DEBUG_FLAGS) {printd x;}
  62      =1  #else
           =1 #define PRINTD(flag,x)
           =1 #endif
  65      =1  
  66      =1  // GLOBAL VARIABLES //
  67      =1  extern byte DEBUG_MsgEnable;
  68      =1  
  69      =1  // EXPORTED SUBPROGRAM SPECIFICATIONS //
  70      =1  int printd(const char *format, ...);
  71      =1  void printd_int (int x);
  72      =1  
  73      =1  #endif // End of PRINTD_H //
  74      =1  
  25          #include    "adapter_cfg.h"
   1      =1  /*
   2      =1   ******************************************************************************
   3      =1   *     Copyright (c) 2006       ASIX Electronic Corporation      All rights reserved.
   4      =1   *
   5      =1   *     This is unpublished proprietary source code of ASIX Electronic Corporation
   6      =1   *
   7      =1   *     The copyright notice above does not evidence any actual or intended
   8      =1   *     publication of such source code.
   9      =1   ******************************************************************************
  10      =1   */
  11      =1  /*=============================================================================
  12      =1   * Module Name:adapter_cfg.h
  13      =1   * Purpose:
  14      =1   * Author:
  15      =1   * Date:
  16      =1   * Notes:
  17      =1   * $Log: adapter_cfg.h,v $
  18      =1   *=============================================================================
  19      =1   */
  20      =1  
  21      =1  #ifndef __ADAPTER_CFG_H__
  22      =1  #define __ADAPTER_CFG_H__
  23      =1  
  24      =1  
  25      =1  /*-------------------------------------------------------------*/
  26      =1  /* NAMING CONSTANT DECLARATIONS */
  27      =1  #define ETH_PHY_AUTO_NEGOTIATION        0
  28      =1  #define ETH_PHY_FIXED_100_FULL          1
  29      =1  #define ETH_PHY_FIXED_100_HALF          2
  30      =1  #define ETH_PHY_FIXED_10_FULL           3
  31      =1  #define ETH_PHY_FIXED_10_HALF           4
  32      =1  #define ETH_PHY_FORCE_EMBEDDED_PHY_10_HALF      5       // Force the embedded Ethernet PHY to operate in 10Mbps half-
             -duplex mode.
  33      =1                                                                                                  // The EEPROM address 0x01(Flag) BIT-0 must be set to 1.           
  34      =1  
  35      =1  #define ETH_PHY_SENSE_TYPE              (ETH_PHY_AUTO_NEGOTIATION)
  36      =1  
  37      =1  /*-------------------------------------------------------------*/
  38      =1  
  39      =1  
  40      =1  #endif /* End of __ADAPTER_CFG_H__ */
  41      =1  
  42      =1  
  43      =1  /* End of adapter_cfg.h */
  26          #include    <string.h>
C51 COMPILER V8.06   UART                                                                  03/10/2026 15:30:57 PAGE 18  

   1      =1  /*--------------------------------------------------------------------------
   2      =1  STRING.H
   3      =1  
   4      =1  String functions.
   5      =1  Copyright (c) 1988-2002 Keil Elektronik GmbH and Keil Software, Inc.
   6      =1  All rights reserved.
   7      =1  --------------------------------------------------------------------------*/
   8      =1  
   9      =1  #ifndef __STRING_H__
  10      =1  #define __STRING_H__
  11      =1  
  12      =1  #ifndef _SIZE_T
  13      =1   #define _SIZE_T
  14      =1   typedef unsigned int size_t;
  15      =1  #endif
  16      =1  
  17      =1  #ifndef NULL
           =1  #define NULL ((void *) 0L)
           =1 #endif
  20      =1  
  21      =1  #pragma SAVE
  22      =1  #pragma REGPARMS
  23      =1  extern char *strcat (char *s1, char *s2);
  24      =1  extern char *strncat (char *s1, char *s2, int n);
  25      =1  
  26      =1  extern char strcmp (char *s1, char *s2);
  27      =1  extern char strncmp (char *s1, char *s2, int n);
  28      =1  
  29      =1  extern char *strcpy (char *s1, char *s2);
  30      =1  extern char *strncpy (char *s1, char *s2, int n);
  31      =1  
  32      =1  extern int strlen (char *);
  33      =1  
  34      =1  extern char *strchr (const char *s, char c);
  35      =1  extern int strpos (const char *s, char c);
  36      =1  extern char *strrchr (const char *s, char c);
  37      =1  extern int strrpos (const char *s, char c);
  38      =1  
  39      =1  extern int strspn (char *s, char *set);
  40      =1  extern int strcspn (char *s, char *set);
  41      =1  extern char *strpbrk (char *s, char *set);
  42      =1  extern char *strrpbrk (char *s, char *set);
  43      =1  extern char *strstr  (char *s, char *sub);
  44      =1  extern char *strtok  (char *str, const char *set);
  45      =1  
  46      =1  extern char memcmp (void *s1, void *s2, int n);
  47      =1  extern void *memcpy (void *s1, void *s2, int n);
  48      =1  extern void *memchr (void *s, char val, int n);
  49      =1  extern void *memccpy (void *s1, void *s2, char val, int n);
  50      =1  extern void *memmove (void *s1, void *s2, int n);
  51      =1  extern void *memset  (void *s, char val, int n);
  52      =1  #pragma RESTORE
  53      =1  
  54      =1  #endif
  27          
  28          #include "printd.h"                                                                       //
   1      =1  //--------------------------------------------------------------------------------
   2      =1  //     Copyright (c) 2005   ASIX Electronic Corporation      All rights reserved.
   3      =1  //
   4      =1  //     This is unpublished proprietary source code of ASIX Electronic Corporation
   5      =1  //
   6      =1  //     The copyright notice above does not evidence any actual or intended
C51 COMPILER V8.06   UART                                                                  03/10/2026 15:30:57 PAGE 19  

   7      =1  //     publication of such source code.
   8      =1  //--------------------------------------------------------------------------------
   9      =1  //================================================================================
  10      =1  // File Name : printd.h
  11      =1  // Purpose   :
  12      =1  // Author    :
  13      =1  // Date      :
  14      =1  // Notes     :
  15      =1  //    printd("justif: \"%-10s\"\n", "left");    =>    justif: "left      "
  16      =1  //    printd("justif: \"%10s\"\n", "right");    =>    justif: "     right"
  17      =1  //    printd(" 3: %04d zero padded\n",   3);     =>     3: 0003 zero padded
  18      =1  //    printd(" 3: %-4d left justif.\n",  3);    =>     3: 3    left justif.
  19      =1  //    printd(" 3: %4d right justif.\n",  3);    =>     3:    3 right justif.
  20      =1  //    printd("-3: %04d zero padded\n",  -3);    =>    -3: -003 zero padded
  21      =1  //    printd("-3: %-4d left justif.\n", -3);    =>    -3: -3   left justif.
  22      =1  //    printd("-3: %4d right justif.\n", -3);    =>    -3:   -3 right justif.
  23      =1  //================================================================================
  24      =1  //
  25      =1  #ifndef PRINTD_H
           =1 #define PRINTD_H
           =1 
           =1 // INCLUDE FILE DECLARATIONS //
           =1 
           =1 // NAMING CONSTANT DECLARATIONS //
           =1 #define UART0                             0
           =1 #define UART1                             1
           =1 #define DEBUG_PORT                      (UART1)
           =1 #define PAD_RIGHT                               1
           =1 #define PAD_ZERO                                2
           =1 #define PRINT_BUF_LEN                     18
           =1 
           =1 #define DRIVER_MSG                              0x0001
           =1 #define INIT_MSG                                0x0002
           =1 #define TX_MSG                                  0x0004
           =1 #define RX_MSG                                  0x0008
           =1 #define INT_MSG                                 0x0010
           =1 #define ERROR_MSG                               0x0020
           =1 #define WARNING_MSG                             0x0040
           =1 #define DEBUG_MSG                               0x0080
           =1 #define TCP_MSG                                 0x0100
           =1 #define ALL_MSG                                 0x01FF
           =1 #define NO_MSG                                  0x0000
           =1 #define DEFAULT_MSG                             (ALL_MSG) 
           =1 #define DEBUG_FLAGS                             DEFAULT_MSG
           =1 #define DEBUG_DISPLAY_DIAG              1
           =1 
           =1 // MACRO DECLARATIONS //
           =1 #if   ( DEBUG_PORT == UART0 )
           =1 #define     DEBUG_PORT_PUTCHR(x)    uart0_PutChar(x)
           =1 #else
           =1 #define DEBUG_PORT_PUTCHR(x)    uart1_PutChar(x)
           =1 #endif
           =1 
           =1 #if DEBUG_DISPLAY_DIAG
           =1 #define PRINTD(flag,x)                  if(flag & DEBUG_FLAGS) {printd x;}
           =1 #else
           =1 #define PRINTD(flag,x)
           =1 #endif
           =1 
           =1 // GLOBAL VARIABLES //
           =1 extern byte DEBUG_MsgEnable;
           =1 
C51 COMPILER V8.06   UART                                                                  03/10/2026 15:30:57 PAGE 20  

           =1 // EXPORTED SUBPROGRAM SPECIFICATIONS //
           =1 int printd(const char *format, ...);
           =1 void printd_int (int x);
           =1 
           =1 #endif // End of PRINTD_H //
  74      =1  
  29          
  30          // STATIC VARIABLE DECLARATIONS //
  31          static byte       uart0_TxBuf[MAX_TX_UART0_BUF_SIZE];
  32          static uint       uart0_TxHead  = 0;
  33          static uint       uart0_TxTail  = 0;
  34          static uint       uart0_TxCount = 0;
  35          static byte       uart0_TxFlag  = 0;
  36                 byte       uart0_RxBuf[MAX_RX_UART0_BUF_SIZE];
  37                 uint       uart0_RxHead  = 0;
  38                 uint       uart0_RxTail  = 0;
  39          static byte       uart0_Mode    = 0;
  40          uint              uart0_RxCount = 0;
  41          
  42          static byte       uart1_TxBuf[MAX_TX_UART1_BUF_SIZE];
  43          static uint       uart1_TxHead  = 0;
  44          static uint       uart1_TxTail  = 0;
  45          static uint       uart1_TxCount = 0;
  46          static byte       uart1_TxFlag  = 0;
  47          byte              uart1_RxBuf[MAX_RX_UART1_BUF_SIZE];
  48          uint              uart1_RxHead  = 0;
  49          uint              uart1_RxTail  = 0;
  50          byte              uart1_Mode    = 0;
  51          uint              uart1_RxCount = 0;
  52          
  53          static byte       uartPort = 0;
  54          
  55          // LOCAL SUBPROGRAM DECLARATIONS //
  56          void              uart_ShowBuffer(byte* pd, byte eol);
  57          
  58          static void       uart0_ISR(void);
  59          static void       uart0_Init(byte baudrate, parity);
  60          static uint       uart0_PutChar(char c);
  61          static uint       uart0_GetKey(void);
  62                 char       uart0_NoBlockGetkey(void);
  63          
  64                 byte       uart0_setBaudRate(byte baudrate);
  65          void              uart0_PutStr(byte* pData, byte cnt);
  66          void              uart0_GetBuf(byte* pData, byte cnt);
  67          void              uart0_RxBufUpdate(byte cnt);
  68          byte              uart0_RxPtrSet(byte c);
  69          void              uart0_RxBufSet(byte c, uint len);
  70          byte              uart0_RxBufCmp(byte *pData,byte len);
  71          uint              uart0_GetByteCount(void);
  72          void              uart0_DisplayRxPointers(void);
  73          void              uart0_ShowRxBuffer(void);
  74          char              uart0_NoBlockGetkey (void);
  75          byte              uart0_TxChk(void);
  76          
  77          static void       uart1_ISR(void);
  78          static void       uart1_Init(byte baudrate, parity);
  79          static uint       uart1_PutChar(char c);
  80          static uint       uart1_GetKey(void);
  81                 char       uart1_NoBlockGetkey(void);
  82          
  83          void              uart1_PutStr(byte* pData, byte cnt);
  84          void              uart1_GetBuf(byte* pData, byte cnt);
C51 COMPILER V8.06   UART                                                                  03/10/2026 15:30:57 PAGE 21  

  85          void              uart1_RxBufUpdate(byte cnt);
  86          byte              uart1_RxPtrSet(byte c);
  87          void              uart1_RxBufSet(byte c, uint len);
  88          byte              uart1_RxBufCmp(byte *pData,byte len);
  89          uint              uart1_GetByteCount(void);
  90          void              uart1_DisplayRxPointers(byte crlf);
  91          byte              uart1_TxChk(void);
  92          
  93          // LOCAL SUBPROGRAM BODIES //
  94          
  95          // ---------------------------------------------------------------------------------------
  96          // Name    : static void uart0_ISR(void)
  97          // Purpose : UART0 interrupt service routine. For sending out, it puts data
  98          //           from software buffer into hardware serial buffer register (SBUF0).
  99          //           For receiving, it gets data from hardware serial buffer register
 100          //           (SBUF0) and stores into software buffer.
 101          // Params  : none
 102          // Returns : none
 103          // Note    : none
 104          // ---------------------------------------------------------------------------------------
 105          static void uart0_ISR(void) interrupt 4
 106          {
 107   1      //      byte  parity = 0;
 108   1            byte  tmp    = 0;                                                                   // 
 109   1      
 110   1            if (RI0)
 111   1              {
 112   2              EA = 0;                                                                           // disable all i
             -nterrupts to make sure process is not interrupted
 113   2              if (uart0_RxCount != MAX_RX_UART0_BUF_SIZE)                                       // 
 114   2                {
 115   3                tmp           = SBUF0;                                                          // get the recei
             -ved data byte
 116   3      //          if (uart0_Mode & TRUE)                                                          // if bit is o
             -ne check for even parity
 117   3      //            {
 118   3      ////            parity = UART_ParityChk(tmp);                                                 // calculate
             - the parity of the recieved byte
 119   3      ////            if (RB08 == parity)                                                           // compare t
             -o received parity bit
 120   3      ////              {
 121   3      //              uart0_RxBuf[uart0_RxHead] = tmp;                                            // place the d
             -ata byte in the ring buffer
 122   3      //              uart0_RxCount++;                                                            // update the 
             -byte count to show data received
 123   3      //              uart0_RxHead++;                                                             // update buff
             -er index to next byte
 124   3      //              uart0_RxHead &= MAX_RX_UART0_MASK;                                          // mask the in
             -dex to buffer circular
 125   3      ////              }
 126   3      ////            else
 127   3      ////              {
 128   3      ////              printd("!!parity fail!!\n\r");                                              // alert the
             - user to the parity error
 129   3      ////              }
 130   3      //            }
 131   3      //          else                                                                            // no parity c
             -heck required
 132   3      //            {
 133   3                  uart0_RxBuf[uart0_RxHead] = tmp;                                              // place the dat
             -a byte in the ring buffer
 134   3                  uart0_RxCount++;                                                              // update the by
C51 COMPILER V8.06   UART                                                                  03/10/2026 15:30:57 PAGE 22  

             -te count to show data received
 135   3                  uart0_RxHead++;                                                               // update buffer
             - index to next byte
 136   3                  uart0_RxHead &= MAX_RX_UART0_MASK;                                            // mask the inde
             -x to buffer circular
 137   3      //            }  
 138   3                }
 139   2              RI0 = 0;
 140   2              EA = 1;
 141   2              } // End of if(RI0) //
 142   1            if (TI0)                                                                            // check if a by
             -te transmission is finished
 143   1              {
 144   2              EA = 0;                                                                           // disable all i
             -nterrupts to make sure process is not interrupted
 145   2              uart0_TxTail++;                                                                   // move the poin
             -ter to the next byte to transmit
 146   2              uart0_TxTail &= MAX_TX_UART0_MASK;                                                // mask the inde
             -x point to make the buffer loop
 147   2              uart0_TxCount--;                                                                  // remove the by
             -te from the buffer count
 148   2              if (uart0_TxCount > 0)                                                            // check if ther
             -e are more bytes to transmit
 149   2                {
 150   3                SBUF0 = uart0_TxBuf[uart0_TxTail];                                              // transmit the 
             -next byte
 151   3      //          if (uart0_Mode & TRUE)                                                          // if bit is o
             -ne check for even parity
 152   3      //            {
 153   3      //            parity = UART_ParityChk((byte)uart0_TxBuf[uart0_TxTail]);                     // generate th
             -e parity bity for even parity
 154   3      //            if (parity)                                                                   // if true byt
             -e parity is odd
 155   3      //              TB08 = 1;                                                                   // data parity
             - is odd set parity bit to '1' to correct for even parity
 156   3      //            else
 157   3      //              TB08 = 0;                                                                   // data parity
             - is even set parity bit to '0' no correction needed
 158   3      //            }
 159   3                }
 160   2              else
 161   2                {
 162   3                uart0_TxFlag = 0;                                                               // turn off the 
             -transmit process
 163   3                }
 164   2              TI0 = 0;
 165   2              EA = 1;
 166   2              } // End of if(TI0) //
 167   1      } // End of UART_Int //
 168          
 169          //----------------------------------------------------------------------------------------
 170          // name    : uart0_setBaudRate                                                            //
 171          // purpose : read the baud switch and update the COM port settings                        //
 172          // params  : desired baud rate                                                            //
 173          // returns : baudrate setting and system clock setting                                    //
 174          // notes   :                                                                              //
 175          //----------------------------------------------------------------------------------------
 176          byte  uart0_setBaudRate(byte baudrate)                                                    //
 177          {
 178   1            byte     t;                                                                         //
 179   1            byte     sysClk;                                                                    //
 180   1            uint     xcap;                                                                      //
C51 COMPILER V8.06   UART                                                                  03/10/2026 15:30:57 PAGE 23  

 181   1            
 182   1            sysClk = CSREPR & 0xC0;                                                             // get the clock
             - frequency
 183   1            t = sysClk | baudrate;                                                              // add the syste
             -m clock setting to the baudrate
 184   1            switch (t)                                                                          // use the baudr
             -ate and clock frequency 
 185   1              {
 186   2              case F_25_B___1200 : printd("1200@25MHz");    xcap = 0xFD75;  break;              // Baud rate =  
             - 1200  @  25MHz.
 187   2              case F_25_B___2400 : printd("2400@25MHz");    xcap = 0xFEBA;  break;              // Baud rate =  
             - 2400  @  25MHz.
 188   2              case F_25_B___4800 : printd("4800@25MHz");    xcap = 0xFF5D;  break;              // Baud rate =  
             - 4800  @  25MHz.
 189   2              case F_25_B___9600 : printd("9600@25MHz");    xcap = 0xFFAF;  break;              // Baud rate =  
             - 9600  @  25MHz.
 190   2              case F_25_B__19200 : printd("19200@25MHz");   xcap = 0xFFD7;  break;              // Baud rate =  
             -19200  @  25MHz.
 191   2              case F_25_B__28800 : printd("28800@25MHz");   xcap = 0xFFE5;  break;              // Baud rate =  
             -28800  @  25MHz.
 192   2              case F_25_B__38400 : printd("38400@25MHz");   xcap = 0xFFEC;  break;              // Baud rate =  
             -38400  @  25MHz.
 193   2              case F_25_B__57600 : printd("57600@25MHz");   xcap = 0xFFF2;  break;              // Baud rate =  
             -57600  @  25MHz.
 194   2              case F_25_B__76800 : printd("76800@25MHz");   xcap = 0xFFF6;  break;              // Baud rate =  
             -76800  @  25MHz.
 195   2              case F_25_B__94750 : printd("94750@25MHz");   xcap = 0xFFF8;  break;              // Baud rate =  
             -94750  @  25MHz.
 196   2              case F_25_B_115200 : printd("115200@25MHz");  xcap = 0xFFF9;  break;              // Baud rate = 1
             -15200  @  25MHz.
 197   2      
 198   2              case F_50_B___1200 : printd("1200@50MHz");    xcap = 0xFAEA;  break;              // Baud rate =  
             - 1200  @  50MHz.
 199   2              case F_50_B___2400 : printd("2400@50MHz");    xcap = 0xFD75;  break;              // Baud rate =  
             - 2400  @  50MHz.
 200   2              case F_50_B___4800 : printd("4800@50MHz");    xcap = 0xFEBA;  break;              // Baud rate =  
             - 4800  @  50MHz.
 201   2              case F_50_B___9600 : printd("9600@50MHz");    xcap = 0xFF5D;  break;              // Baud rate =  
             - 9600  @  50MHz.
 202   2              case F_50_B__19200 : printd("19200@50MHz");   xcap = 0xFFAF;  break;              // Baud rate =  
             -19200  @  50MHz.
 203   2              case F_50_B__28800 : printd("28800@50MHz");   xcap = 0xFFCA;  break;              // Baud rate =  
             -28800  @  50MHz.
 204   2              case F_50_B__38400 : printd("38400@50MHz");   xcap = 0xFFD7;  break;              // Baud rate =  
             -38400  @  50MHz.
 205   2              case F_50_B__57600 : printd("57600@50MHz");   xcap = 0xFFE5;  break;              // Baud rate =  
             -57600  @  50MHz.
 206   2              case F_50_B__76800 : printd("76800@50MHz");   xcap = 0xFFEC;  break;              // Baud rate =  
             -76800  @  50MHz.
 207   2              case F_50_B__94750 : printd("94750@50MHz");   xcap = 0xFFF0;  break;              // Baud rate =  
             -94750  @  50MHz.
 208   2              case F_50_B_115200 : printd("115200@50MHz");  xcap = 0xFFF2;  break;              // Baud rate = 1
             -15200  @  50MHz.
 209   2      
 210   2              case F100_B___1200 : printd("1200@100MHz");   xcap = 0xF5D4;  break;              // Baud rate =  
             - 1200  @ 100MHz.
 211   2              case F100_B___2400 : printd("2400@100MHz");   xcap = 0xFAEA;  break;              // Baud rate =  
             - 2400  @ 100MHz.
 212   2              case F100_B___4800 : printd("4800@100MHz");   xcap = 0xFD75;  break;              // Baud rate =  
             - 4800  @ 100MHz.
 213   2              case F100_B___9600 : printd("9600@100MHz");   xcap = 0xFEBA;  break;              // Baud rate =  
             - 9600  @ 100MHz.
C51 COMPILER V8.06   UART                                                                  03/10/2026 15:30:57 PAGE 24  

 214   2              case F100_B__19200 : printd("19200@100MHz");  xcap = 0xFF5D;  break;              // Baud rate =  
             -19200  @ 100MHz.
 215   2              case F100_B__28800 : printd("28800@100MHz");  xcap = 0xFF93;  break;              // Baud rate =  
             -28800  @ 100MHz.
 216   2              case F100_B__38400 : printd("38400@100MHz");  xcap = 0xFFAF;  break;              // Baud rate =  
             -38400  @ 100MHz.
 217   2              case F100_B__57600 : printd("57600@100MHz");  xcap = 0xFFCA;  break;              // Baud rate =  
             -57600  @ 100MHz.
 218   2              case F100_B__76800 : printd("76800@100MHz");  xcap = 0xFFD7;  break;              // Baud rate =  
             -76800  @ 100MHz.
 219   2              case F100_B__94750 : printd("94750@100MHz");  xcap = 0xFFDF;  break;              // Baud rate =  
             -94750  @ 100MHz.
 220   2              case F100_B_115200 : printd("115200@100MHz"); xcap = 0xFFE5;  break;              // Baud rate = 1
             -15200  @ 100MHz.
 221   2      
 222   2              default            : printd("  1200@25MHz");  xcap = 0xFD75;  break;              // Baud rate = D
             -EFAULT 1200 @ 25MHz.
 223   2              }
 224   1            printd("\n\r");
 225   1      
 226   1      //; SET UP TIMER 2 FOR CLOCKING SERIAL PORT, AT 38400 BPS WITH 11.0592Mhz CRYSTAL
 227   1      //    Freq(MHz)       100   50    25
 228   1      //    RLD for 38400 = FFAF  FFD7  FFEB
 229   1      //            19200 = FF5D  FFAF  FFD7
 230   1      //             9600 = FEBA  FF5D  FFAF
 231   1      //             4800 = FD74  FEBA  FF5D
 232   1      //      printd(" t=%2bx xcap=%4dx",t,xcap);
 233   1      //      while(UART0_TxChk());                                                               //
 234   1      //
 235   1            sysClk = HIGH_BYTE(xcap);                                                           // 
 236   1      //      printd(" h=%2bx",sysClk);
 237   1            RLDH   = sysClk;                                                                    // 
 238   1            sysClk = LOW_BYTE(xcap);                                                            // 
 239   1      //      printd(" l=%2bx",sysClk);
 240   1            RLDL   = sysClk;                                                                    // 
 241   1      
 242   1            return t;                                                                           // return the so
             -ftware timer count
 243   1      }
 244          
 245          // ---------------------------------------------------------------------------------------
 246          // Name    : static void uart0_Init
 247          // Purpose : Setting operation mode of UART0 and initiating the global values.
 248          // Params  : baud rate, parity on
 249          // Returns : none
 250          // Note    : none
 251          // ---------------------------------------------------------------------------------------
 252          static void uart0_Init(byte baudrate, parity)
 253          {
 254   1            byte  sysClk  = 0;
 255   1      
 256   1            uart0_TxHead  = 0;                                                                  // set the head 
             -index to the beginning of the ring buffer
 257   1            uart0_TxTail  = 0;                                                                  // set the tail 
             -index to the beginning of the ring buffer
 258   1            uart0_TxCount = 0;                                                                  // set the buffe
             -r count to zero
 259   1            uart0_TxFlag  = 0;                                                                  // set the trans
             -mit engine started flag
 260   1            uart0_RxHead  = 0;                                                                  // set the head 
             -index to the beginning of the ring buffer
 261   1            uart0_RxTail  = 0;                                                                  // set the tail 
C51 COMPILER V8.06   UART                                                                  03/10/2026 15:30:57 PAGE 25  

             -index to the beginning of the ring buffer
 262   1            uart0_RxCount = 0;                                                                  // set the buffe
             -r count to zero
 263   1            memset(&uart0_TxBuf[0],0,MAX_TX_UART0_BUF_SIZE);                                    // clear the tra
             -nsmit buffer
 264   1            memset(&uart0_RxBuf[0],0,MAX_RX_UART0_BUF_SIZE);                                    // clear the rec
             -eive buffer
 265   1      // initialize timer1 for standard 8051 uart clock
 266   1      //      uart0_Mode    = parity;                                                             // tell the IS
             -R that there is parity, 1 = true, 0 = false
 267   1            PCON          = PCON | SMOD2_;                                                      // 
 268   1            SM00          = 0;                                                                  // 
 269   1            SM01          = 1;                                                                  // Use serial po
             -rt 0 in mode 1 with 8-bits data.
 270   1            REN0          = 1;                                                                  // Enable UART0 
             -receiver.
 271   1            TMOD          = 0x20;                                                                   // Use timer 1 in mode 
             -2, 8-bit counter with auto-reload.
 272   1            uart0_setBaudRate(baudrate);                                                        // set the baudr
             -ate
 273   1            TH2           = RLDH;                                                               // load the regi
             -sters with the reload values
 274   1            TL2           = RLDL;                                                               //
 275   1            ES0           = 1;                                                                  // enable serial
             - port Interrupt request
 276   1            T2CON         = 0x30;                                                               // set uart0 to 
             -use timer 2 for rclk and tclk
 277   1            TR2           = 1;                                                                  // run timer 2
 278   1      } // End of uart0_Init //
 279          
 280          // ---------------------------------------------------------------------------------------
 281          // Name    : static uint uart0_PutChar(char c)
 282          // Purpose : UART0 output function. This function puts one byte data into the
 283          //           software character buffer.
 284          // Params  : c - one byte character.
 285          // Returns : c - one byte character.
 286          // Note    : none
 287          // ---------------------------------------------------------------------------------------
 288          uint uart0_PutChar(char c)
 289          {
 290   1            uint count = 0;
 291   1              do
 292   1                {
 293   2                EA = 0;
 294   2                count = uart0_TxCount; 
 295   2                EA = 1;
 296   2                } 
 297   1              while (count == MAX_TX_UART0_BUF_SIZE);
 298   1              uart0_TxBuf[uart0_TxHead] = c;
 299   1              EA = 0;
 300   1              uart0_TxCount++;
 301   1              EA = 1;
 302   1              uart0_TxHead++;
 303   1              uart0_TxHead &= MAX_TX_UART0_MASK;
 304   1            if (!uart0_TxFlag)
 305   1              {
 306   2              uart0_TxFlag = 1;
 307   2              SBUF0 = uart0_TxBuf[uart0_TxTail];
 308   2              }
 309   1            return c;
 310   1      }
 311          
C51 COMPILER V8.06   UART                                                                  03/10/2026 15:30:57 PAGE 26  

 312          // ---------------------------------------------------------------------------------------
 313          // Name    : static char uart0_GetKey(void)
 314          // Purpose : UART0 input function. This function replies one byte data from the
 315          //           software character buffer.
 316          // Params  : none
 317          // Returns : c - one byte character.
 318          // Note    : none
 319          // ---------------------------------------------------------------------------------------
 320          uint uart0_GetKey (void)
 321          {
 322   1            byte c;
 323   1      
 324   1            if (uart0_RxCount == 0) return 0x100;
 325   1      
 326   1            EA = 0;
 327   1            uart0_RxCount--;
 328   1            EA = 1;
 329   1            c = uart0_RxBuf[uart0_RxTail];
 330   1            uart0_RxTail++;
 331   1            uart0_RxTail &= MAX_RX_UART0_MASK;
 332   1            return c;
 333   1      }
 334          
 335          // ---------------------------------------------------------------------------------------
 336          // Name    : uart0_TxChk
 337          // Purpose : UART0 input function. This function replies one byte data from the
 338          //           software character buffer. But it only check the buffer one time.
 339          //           If no data, it will reply a FALSE condition.
 340          // Params  : none
 341          // Returns : c - one byte character.
 342          // Note    : none
 343          // ---------------------------------------------------------------------------------------
 344          byte  uart0_TxChk(void)
 345          {
 346   1         return(uart0_TxFlag);
 347   1      }
 348          
 349          // ---------------------------------------------------------------------------------------
 350          // Name    : void uart0_PutStr(byte* pData, byte cnt)
 351          // Purpose : copy the string data to the local UART0 buffer from the
 352          //           source buffer.
 353          // Params  : pointer to the source buffer, and the number of bytes to copy
 354          // Returns : none
 355          // Note    : none
 356          // ---------------------------------------------------------------------------------------
 357          void uart0_PutStr(byte* pData, byte cnt)
 358          {
 359   1            uint count = 0;
 360   1            uint offset;
 361   1      
 362   1      //printd("stx msg cnt = %bu\n\r",cnt);
 363   1      
 364   1            do
 365   1              {
 366   2              EA = 0;
 367   2              count = uart0_TxCount; 
 368   2              EA = 1;
 369   2              } 
 370   1            while ((count + cnt) == MAX_TX_UART0_BUF_SIZE);
 371   1            if((uart0_TxHead + cnt) > MAX_TX_UART0_BUF_SIZE)
 372   1              {
 373   2              offset = MAX_TX_UART0_BUF_SIZE - uart0_TxHead;
C51 COMPILER V8.06   UART                                                                  03/10/2026 15:30:57 PAGE 27  

 374   2              memmove(&uart0_TxBuf[uart0_TxHead], pData, offset);
 375   2              memmove(&uart0_TxBuf[0], pData+offset, cnt - offset);
 376   2              }
 377   1            else
 378   1              memmove(&uart0_TxBuf[uart0_TxHead], pData, cnt);
 379   1            
 380   1            EA = 0;
 381   1            uart0_TxCount += cnt;
 382   1            EA = 1;
 383   1            uart0_TxHead += cnt;
 384   1            uart0_TxHead &= MAX_TX_UART0_MASK;
 385   1            if (!uart0_TxFlag)
 386   1              {
 387   2              uart0_TxFlag = 1;
 388   2              SBUF0 = uart0_TxBuf[uart0_TxTail];
 389   2      //      HalfDuplex = 1;
 390   2              }
 391   1      }
 392          
 393          // ---------------------------------------------------------------------------------------
 394          // Name    : void uart0_GetBuf(byte* pData, byte cnt)
 395          // Purpose : copy the recieved data from the local UART0 buffer to the
 396          //           destination buffer.
 397          // Params  : pointer to the destination buffer, and the number of bytes to copy
 398          // Returns : none
 399          // Note    : none
 400          // ---------------------------------------------------------------------------------------
 401          void uart0_GetBuf(byte* pData, byte cnt)
 402          {
 403   1            uint offset;
 404   1            
 405   1            if((uart0_RxTail + cnt) > MAX_RX_UART0_BUF_SIZE)
 406   1              {
 407   2              offset = MAX_RX_UART0_BUF_SIZE - uart0_RxTail;
 408   2              memmove(pData, &uart0_RxBuf[uart0_RxTail], offset);
 409   2              memmove(pData+offset, &uart0_RxBuf[0], cnt - offset);
 410   2              }
 411   1            else
 412   1              memmove(pData, &uart0_RxBuf[uart0_RxTail], cnt);
 413   1      }
 414          
 415          uint UA0_GetCount(void)
 416          {
 417   1         return(uart0_RxCount);
 418   1      }
 419          
 420          // ---------------------------------------------------------------------------------------
 421          // Name    : void uart0_RxBufUpdate(byte cnt)
 422          // Purpose : update the received data count and the tail index
 423          // Params  : the number of bytes that were copied
 424          // Returns : none
 425          // Note    : none
 426          // ---------------------------------------------------------------------------------------
 427          void uart0_RxBufUpdate(byte cnt)
 428          {
 429   1            uart0_RxTail = uart0_RxTail + cnt;
 430   1            uart0_RxTail &= MAX_RX_UART0_MASK;
 431   1            EA = 0;
 432   1            uart0_RxCount = uart0_RxCount - cnt;      
 433   1            EA = 1;
 434   1      }
 435          
C51 COMPILER V8.06   UART                                                                  03/10/2026 15:30:57 PAGE 28  

 436          // ---------------------------------------------------------------------------------------
 437          // Name    : void uart0_RxPtrSet(byte c)
 438          // Purpose : find the first occurence of the character in c
 439          // Params  : the character to search for
 440          // Returns : none
 441          // Note    : none
 442          // ---------------------------------------------------------------------------------------
 443          byte uart0_RxPtrSet(byte c)
 444          {
 445   1            uint length;
 446   1            byte *pData1, *pData2;
 447   1            
 448   1            length       = MAX_TX_UART0_BUF_SIZE - uart0_RxTail;
 449   1            pData1       = memchr(&uart0_RxBuf[uart0_RxTail], c, length);
 450   1            pData2       = &uart0_RxBuf[MAX_RX_UART0_BUF_SIZE];
 451   1            length       = *(pData1) - *(pData2);
 452   1            uart0_RxTail = length;
 453   1            return uart0_RxBuf[uart0_RxTail];
 454   1      }
 455          
 456          // ---------------------------------------------------------------------------------------
 457          // Name    : void uart0_RxBufSet(byte c)
 458          // Purpose : find the first occurence of the character in c
 459          // Params  : the character to search for
 460          // Returns : none
 461          // Note    : none
 462          // ---------------------------------------------------------------------------------------
 463          void uart0_RxBufSet(byte c, uint len)
 464          {
 465   1            uint offset;
 466   1            
 467   1            if((uart0_RxTail + len) > MAX_RX_UART0_BUF_SIZE)
 468   1              {
 469   2              offset = MAX_RX_UART0_BUF_SIZE - uart0_RxTail;
 470   2              memset(&uart0_RxBuf[uart0_RxTail], c, offset);
 471   2              memset(&uart0_RxBuf[0], c, len - offset);
 472   2              }
 473   1            else
 474   1              memset(&uart0_RxBuf[uart0_RxTail], c, len);
 475   1      }
 476          
 477          // ---------------------------------------------------------------------------------------
 478          // Name    : byte uart0_RxBufCmp(byte c)
 479          // Purpose : compary the two arrays
 480          // Params  : pointer to the array to compare, number of bytes to compare
 481          // Returns : 0 if equal !0 if not equal
 482          // Note    : none
 483          // ---------------------------------------------------------------------------------------
 484          byte uart0_RxBufCmp(byte *pData,byte len)
 485          {
 486   1            uint offset;
 487   1            byte result;
 488   1            
 489   1            if((uart0_RxTail + len) > MAX_RX_UART0_BUF_SIZE)
 490   1              {
 491   2              offset  = MAX_RX_UART0_BUF_SIZE - uart0_RxTail;
 492   2              result  = memcmp(&uart0_RxBuf[uart0_RxTail], pData, offset);
 493   2              result |= memcmp(&uart0_RxBuf[0], pData+offset, len - offset);
 494   2              }
 495   1            else
 496   1              result  = memcmp(&uart0_RxBuf[uart0_RxTail], pData, len);
 497   1      
C51 COMPILER V8.06   UART                                                                  03/10/2026 15:30:57 PAGE 29  

 498   1            return result;
 499   1      }
 500          
 501          // ---------------------------------------------------------------------------------------
 502          // Name    : uart0_GetByteCount
 503          // Purpose : return the number of bytes waiting in the buffer.
 504          // Params  : none
 505          // Returns : number of characters in the buffer
 506          // Note    : none
 507          // ---------------------------------------------------------------------------------------
 508          uint uart0_GetByteCount(void)
 509          {
 510   1            return uart0_RxCount;
 511   1      }
 512          
 513          // ---------------------------------------------------------------------------------------
 514          // Name    : uart0_DisplayRxPointers
 515          // Purpose : display in the debug window the ring buffer pointers to the user.
 516          // Params  : none
 517          // Returns : none
 518          // Note    : none
 519          // ---------------------------------------------------------------------------------------
 520          void uart0_DisplayRxPointers(void)
 521          {
 522   1            printd("--RxHead %du, RxTail %du, RxCnt %du--\n\r",uart0_RxHead ,uart0_RxTail ,uart0_RxCount);
 523   1      }
 524          
 525          // ---------------------------------------------------------------------------------------
 526          // Name    : uart0_ShowRxBuffer
 527          // Purpose : display in the debug window the current contents of the uart ring buffer
 528          // Params  : none
 529          // Returns : none
 530          // Note    : none
 531          // ---------------------------------------------------------------------------------------
 532          void uart0_ShowRxBuffer(void)
 533          {
 534   1            uint i;
 535   1      
 536   1            for(i = 0;i < MAX_RX_UART0_BUF_SIZE;i++)
 537   1              {
 538   2              if((i % 16) == 0) printd("\n\r%04dx :",i);
 539   2              printd(" %02bx",uart0_RxBuf[i]);
 540   2              }
 541   1            printd("\n\r");
 542   1      }
 543          
 544          // ---------------------------------------------------------------------------------------
 545          // Name    : static char uart0_NoBlockGetkey(void)
 546          // Purpose : UART0 input function. This function replies one byte data from the
 547          //           software character buffer. But it only check the buffer one time.
 548          //           If no data, it will reply a FALSE condition.
 549          // Params  : none
 550          // Returns : c - one byte character.
 551          // Note    : none
 552          // ---------------------------------------------------------------------------------------
 553          char uart0_NoBlockGetkey (void)
 554          {
 555   1          char c = 0;
 556   1      
 557   1          if (uart0_RxCount !=0 )
 558   1            {
 559   2            EA   = 0;
C51 COMPILER V8.06   UART                                                                  03/10/2026 15:30:57 PAGE 30  

 560   2            uart0_RxCount--;
 561   2            EA   = 1;
 562   2            c    = uart0_RxBuf[uart0_RxTail];
 563   2            uart0_RxTail++;
 564   2            uart0_RxTail &= MAX_RX_UART0_MASK;
 565   2            return c;
 566   2            }
 567   1          return FALSE;
 568   1      }
 569          
 570          // ---------------------------------------------------------------------------------------
 571          // Name    : static void uart1_ISR(void)
 572          // Purpose : UART1 interrupt service routine. For sending out, it puts data
 573          //           from software buffer into hardware serial buffer register (SBUF1).
 574          //           For receiving, it gets data from hardware serial buffer register
 575          //           (SBUF1) and stores into software buffer.
 576          // Params  : none
 577          // Returns : none
 578          // Note    : none
 579          // ---------------------------------------------------------------------------------------
 580          static void uart1_ISR(void) interrupt 6
 581          {
 582   1      //      byte  parity = 0;                                                                   // 
 583   1            byte  tmp    = 0;                                                                   // 
 584   1      
 585   1            if (RI1)                                                                            // 
 586   1              {
 587   2              EA               = 0;                                                             // disable inter
             -rupts before receiving data
 588   2              if (uart1_RxCount != MAX_RX_UART1_BUF_SIZE)                                       // check to see 
             -if the buffer is full
 589   2                {
 590   3                tmp            = SBUF1;                                                         // get the recei
             -ved data byte
 591   3      //          if (uart1_Mode  & TRUE)                                                         // if bit is o
             -ne check for even parity
 592   3      //            {
 593   3      //            parity = UART_ParityChk(tmp);                                                 // calculate t
             -he parity of the recieved byte
 594   3      //            if (RB18 == parity)                                                           // compare to 
             -received parity bit
 595   3      //              {
 596   3      //              uart1_RxBuf[uart1_RxHead] = tmp;                                            // place the d
             -ata byte in the ring buffer
 597   3      //              uart1_RxCount++;                                                            // update the 
             -byte count to show data received
 598   3      //              uart1_RxHead++;                                                             // update buff
             -er index to next byte
 599   3      //              uart1_RxHead &= MAX_RX_UART1_MASK;                                          // mask the in
             -dex to buffer circular
 600   3      //              }
 601   3      //            else
 602   3      //              {
 603   3      //              printd("!!parity fail!!\n\r");
 604   3      //              }
 605   3      //            }
 606   3      //          else                                                                            // no parity c
             -heck required
 607   3                  {
 608   4                  uart1_RxBuf[uart1_RxHead] = tmp;                                              // place the dat
             -a byte in the ring buffer
 609   4                  uart1_RxCount++;                                                              // update the by
C51 COMPILER V8.06   UART                                                                  03/10/2026 15:30:57 PAGE 31  

             -te count to show data received
 610   4                  uart1_RxHead++;                                                               // update buffer
             - index to next byte
 611   4                  uart1_RxHead &= MAX_RX_UART1_MASK;                                            // mask the inde
             -x to buffer circular
 612   4                  }  
 613   3                }
 614   2              RI1             = 0;
 615   2              EA              = 1;
 616   2              } // End of if(RI0) //
 617   1      
 618   1            if (TI1)
 619   1              {
 620   2              EA              = 0;                                                              // disable inter
             -rupts
 621   2              uart1_TxTail++;                                                                   // update the ar
             -ray index to the next cell
 622   2              uart1_TxTail   &= MAX_TX_UART1_MASK;                                              // mask the inde
             -x to make the buffer circular
 623   2              uart1_TxCount--;                                                                  // update the nu
             -mber of bytes in the buffer
 624   2              if (uart1_TxCount > 0)                                                            // check for mor
             -e data to transmit
 625   2                {
 626   3                SBUF1         = uart1_TxBuf[uart1_TxTail];                                      // start the tra
             -nsmission of the next byte in the buffer
 627   3      //          if (uart1_Mode & BIT1)                                                          // if bit is o
             -ne check for even parity
 628   3      //            {
 629   3      //            parity = UART_ParityChk((byte)uart1_TxBuf[uart1_TxTail]);                     // generate th
             -e parity bity for even parity
 630   3      //            if (parity)                                                                   // if true byt
             -e parity is odd
 631   3      //              TB18 = 1;                                                                   // data parity
             - is odd set parity bit to '1' to correct for even parity
 632   3      //            else
 633   3      //              TB18 = 0;                                                                   // data parity
             - is even set parity bit to '0' no correction needed
 634   3      //            }
 635   3                }
 636   2              else
 637   2                uart1_TxFlag  = 0;                                                              // set the proce
             -ss running flag to false
 638   2              TI1             = 0;                                                              // clear the tra
             -nsmitted flag
 639   2              EA              = 1;                                                              // reenable inte
             -rrupts
 640   2              } // End of if(TI0) //
 641   1      }
 642          
 643          // ---------------------------------------------------------------------------------------
 644          // Name    : uart1_Init
 645          // Purpose : Setting operation mode of UART1 and initiating the global values.
 646          // Params  : none
 647          // Returns : none
 648          // Note    : none
 649          // ---------------------------------------------------------------------------------------
 650          static void uart1_Init(byte baudrate, parity)
 651          {
 652   1            byte  sysClk  = 0;
 653   1      
 654   1            uart1_TxHead  = 0;  uart1_TxTail = 0;  uart1_TxCount = 0;  uart1_TxFlag  = 0;       // initailize tr
C51 COMPILER V8.06   UART                                                                  03/10/2026 15:30:57 PAGE 32  

             -ansmission flags
 655   1            uart1_RxHead  = 0;  uart1_RxTail = 0;  uart1_RxCount = 0;                           // initailize re
             -ceive flags
 656   1            memset(&uart1_TxBuf[0],0,MAX_TX_UART1_BUF_SIZE);                                    // clear all of 
             -the bytes in the transmit buffer
 657   1            memset(&uart1_RxBuf[0],0,MAX_RX_UART1_BUF_SIZE);                                    // clear all of 
             -the bytes in the receive buffer
 658   1      
 659   1            baudrate      = baudrate;
 660   1      
 661   1             // Initialize TIMER1 for standard 8051 UART clock
 662   1            PCON       = PCON;//| SMOD1_;                                                       // Enable BaudRa
             -te doubler.
 663   1            SM10       = 0;                   // 0 = 8 data bits, 1 = 9 databits 9th bit recieved in RB18 of SCO
             -N1 or transmitted in TB18 of SCON1
 664   1      //      uart1_Mode = parity;              // tell the ISR that there is parity, 1 = true, 0 = false
 665   1      //      SM10       = 0;                 // ckcon.4 1=4,0=12,0 is default                  // Use serial po
             -rt 1 in mode 1 with 8-bits data.
 666   1            SM11       = 1;                   // ckcon.4 1=4,0=12,0 is default                  // Use serial po
             -rt 1 in mode 1 with 8-bits data.
 667   1            REN1       = 1;                   // 100MHz / 4  = 25MHz   = fsysclk                // Enable UART1 
             -receiver.
 668   1            TMOD       = 0x20;                // 100MHz / 12 = 8.33MHz = fsysclk                // Use timer 1 i
             -n mode 2, 8-bit counter with auto-reload.
 669   1      
 670   1            sysClk     = CSREPR & 0xC0;       // baud = T1overflow/(32/2^(smod))
 671   1            switch (sysClk)                   // t1overflow = fsysclk / (32*(256 - th1))
 672   1              {
 673   2              case SCS_100M : 
 674   2                  switch(baudrate)
 675   2                   {
 676   3                   case Baud___9600 : TH1 = 0xE5; break;  // 0xE4 = 228(d), 256 - TH1 = 27      // Baud rate = 9
             -600 @ 100MHz. actual = 9645.062 err = 0.5%
 677   3                   case Baud__19200 : TH1 = 0xF2; break;  // 0xF2 = 242(d), 256 - TH1 = 14      // Baud rate = 1
             -9200 @ 100MHz. actual = 18601.190 err = 3.1%
 678   3                   case Baud__38400 : TH1 = 0xF9; break;  // 0xF9 = 249(d), 256 - TH1 = 7       // Baud rate = 3
             -8400 @ 100MHz. actual = 372002.381 err
 679   3                   default          : TH1 = 0xE5; break;                                        // Baud rate = 9
             -600 @ 100MHz.
 680   3                   }
 681   2                   break;        
 682   2              case SCS_50M  : 
 683   2                  switch(baudrate)
 684   2                   {
 685   3                   case Baud___9600 : TH1 = 0xF2; break;                                        // Baud rate = 9
             -600 @ 50MHz.
 686   3                   case Baud__19200 : TH1 = 0xF9; break;                                        // Baud rate = 1
             -9200 @ 50MHz.
 687   3                   default          : TH1 = 0xF2; break;                                        // Baud rate = 9
             -600 @ 50MHz.
 688   3                   }
 689   2                   break;        
 690   2              case SCS_25M  :         TH1 = 0xF9; break;                                        // Baud rate = 9
             -600 @ 25MHz.
 691   2              default       :         TH1 = 0xF9; break;                                        // Baud rate = 9
             -600 @ 25MHz.
 692   2              }
 693   1            ES1        = 1;                                                                     // Enable serial
             - port Interrupt request
 694   1            TR1        = 1;                                                                     // Run Timer 1
 695   1            TI1        = 0;                                                                     // Clear transmi
             -tted flag
C51 COMPILER V8.06   UART                                                                  03/10/2026 15:30:57 PAGE 33  

 696   1      }
 697          
 698          // ---------------------------------------------------------------------------------------
 699          // Name    : static uint uart1_PutChar(char c)
 700          // Purpose : UART1 output function. This function puts one byte data into the
 701          //           software character buffer.
 702          // Params  : c - one byte character.
 703          // Returns : c - one byte character.
 704          // Note    : none
 705          // ---------------------------------------------------------------------------------------
 706          uint uart1_PutChar(char c)
 707          {
 708   1            uint count                = 0;
 709   1      
 710   1            do
 711   1              {
 712   2              EA                      = 0;
 713   2              count                   = uart1_TxCount; 
 714   2              EA                      = 1;
 715   2              }
 716   1            while (count == MAX_TX_UART1_BUF_SIZE);
 717   1            uart1_TxBuf[uart1_TxHead] = c;
 718   1            EA                        = 0;
 719   1            uart1_TxCount++;
 720   1            EA                        = 1;
 721   1            uart1_TxHead++;
 722   1            uart1_TxHead             &= MAX_TX_UART1_MASK;
 723   1            if (!uart1_TxFlag)
 724   1              {
 725   2              uart1_TxFlag            = 1;
 726   2              SBUF1                   = uart1_TxBuf[uart1_TxTail];
 727   2              }
 728   1            return c;
 729   1      }
 730          
 731          // ---------------------------------------------------------------------------------------
 732          // Name    : static uint uart1_GetKey(void)
 733          // Purpose : UART1 input function. This function replies one byte data from the
 734          //           software character buffer.
 735          // Params  : none
 736          // Returns : c - one byte character.
 737          // Note    : none
 738          // ---------------------------------------------------------------------------------------
 739          uint uart1_GetKey (void)
 740          {
 741   1            byte c;
 742   1      
 743   1            if (uart1_RxCount==0) return 0x100;
 744   1            EA            = 0;
 745   1            uart1_RxCount--;
 746   1            EA            = 1;
 747   1            c             = uart1_RxBuf[uart1_RxTail];
 748   1            uart1_RxTail++;
 749   1            uart1_RxTail &= MAX_RX_UART1_MASK;
 750   1            return c;
 751   1      }
 752          
 753          // ---------------------------------------------------------------------------------------
 754          // Name    : void uart1_PutStr(byte* pData, byte cnt)
 755          // Purpose : copy the string data to the local UART1 buffer from the
 756          //           source buffer.
 757          // Params  : pointer to the source buffer, and the number of bytes to copy
C51 COMPILER V8.06   UART                                                                  03/10/2026 15:30:57 PAGE 34  

 758          // Returns : none
 759          // Note    : none
 760          // ---------------------------------------------------------------------------------------
 761          void uart1_PutStr(byte* pData, byte cnt)
 762          {
 763   1            uint count = 0;
 764   1            uint offset;
 765   1      
 766   1            do
 767   1              {
 768   2              EA = 0;
 769   2              count = uart1_TxCount; 
 770   2              EA = 1;
 771   2              } 
 772   1            while ((count + cnt) == MAX_TX_UART1_BUF_SIZE);
 773   1            if((uart1_TxHead + cnt) > MAX_TX_UART1_BUF_SIZE)
 774   1              {
 775   2              offset = MAX_TX_UART1_BUF_SIZE - uart1_TxHead;
 776   2              memmove(&uart1_TxBuf[uart1_TxHead], pData, offset);
 777   2              memmove(&uart1_TxBuf[0], pData+offset, cnt - offset);
 778   2              }
 779   1            else
 780   1              memmove(&uart1_TxBuf[uart1_TxHead], pData, cnt);
 781   1            EA = 0;
 782   1            uart1_TxCount += cnt;
 783   1            EA = 1;
 784   1            uart1_TxHead += cnt;
 785   1            uart1_TxHead &= MAX_TX_UART1_MASK;
 786   1            if (!uart1_TxFlag)
 787   1              {
 788   2              uart1_TxFlag = 1;
 789   2              SBUF1 = uart1_TxBuf[uart1_TxTail];
 790   2              }
 791   1      }
 792          
 793          // ---------------------------------------------------------------------------------------
 794          // Name    : void uart1_GetBuf(byte* pData, byte cnt)
 795          // Purpose : copy the recieved data from the local UART1 buffer to the
 796          //           destination buffer.
 797          // Params  : pointer to the destination buffer, and the number of bytes to copy
 798          // Returns : none
 799          // Note    : none
 800          // ---------------------------------------------------------------------------------------
 801          void uart1_GetBuf(byte* pData, byte cnt)
 802          {
 803   1            uint offset;
 804   1            
 805   1            if((uart1_RxTail + cnt) > MAX_RX_UART1_BUF_SIZE)
 806   1              {
 807   2              offset = MAX_RX_UART1_BUF_SIZE - uart1_RxTail;
 808   2              memmove(pData, &uart1_RxBuf[uart1_RxTail], offset);
 809   2              memmove(pData+offset, &uart1_RxBuf[0], cnt - offset);
 810   2              }
 811   1            else
 812   1              memmove(pData, &uart1_RxBuf[uart1_RxTail], cnt);
 813   1      }
 814          
 815          // ---------------------------------------------------------------------------------------
 816          // Name    : void uart1_RxBufUpdate(byte cnt)
 817          // Purpose : update the received data count and the tail index
 818          // Params  : the number of bytes that were copied
 819          // Returns : none
C51 COMPILER V8.06   UART                                                                  03/10/2026 15:30:57 PAGE 35  

 820          // Note    : none
 821          // ---------------------------------------------------------------------------------------
 822          void uart1_RxBufUpdate(byte cnt)
 823          {
 824   1      //      printd("pre  update %02bx %04dx %04dx\n\r",cnt, uart1_RxTail, uart1_RxCount);
 825   1            uart1_RxTail = uart1_RxTail + cnt;
 826   1            uart1_RxTail &= MAX_RX_UART1_MASK;
 827   1            EA = 0;
 828   1            uart1_RxCount = uart1_RxCount - cnt;      
 829   1            EA = 1;
 830   1      //      printd("post update %02bx %04dx %04dx\n\r",cnt, uart1_RxTail, uart1_RxCount);
 831   1      }
 832          
 833          // ---------------------------------------------------------------------------------------
 834          // Name    : void uart1_RxPtrSet(byte c)
 835          // Purpose : find the first occurence of the character in c
 836          // Params  : the character to search for
 837          // Returns : none
 838          // Note    : none
 839          // ---------------------------------------------------------------------------------------
 840          byte uart1_RxPtrSet(byte c)
 841          {
 842   1            uint length;
 843   1            byte *pData1, *pData2;
 844   1            
 845   1            length = MAX_TX_UART1_BUF_SIZE - uart1_RxTail;
 846   1            pData1 = memchr(&uart1_RxBuf[uart1_RxTail], c, length);
 847   1            pData2 = &uart1_RxBuf[MAX_TX_UART1_BUF_SIZE];
 848   1            length = *(pData1) - *(pData2);
 849   1            uart1_RxTail = length;
 850   1            return uart1_RxBuf[uart1_RxTail];
 851   1      }
 852          
 853          // ---------------------------------------------------------------------------------------
 854          // Name    : void uart1_RxBufSet(byte c)
 855          // Purpose : find the first occurence of the character in c
 856          // Params  : the character to search for
 857          // Returns : none
 858          // Note    : none
 859          // ---------------------------------------------------------------------------------------
 860          void uart1_RxBufSet(byte c, uint len)
 861          {
 862   1            uint offset;
 863   1            
 864   1            if((uart1_RxTail + len) > MAX_RX_UART1_BUF_SIZE)
 865   1              {
 866   2              offset = MAX_RX_UART1_BUF_SIZE - uart1_RxTail;
 867   2              memset(&uart1_RxBuf[uart1_RxTail], c, offset);
 868   2              memset(&uart1_RxBuf[0], c, len - offset);
 869   2              }
 870   1            else
 871   1              memset(&uart1_RxBuf[uart1_RxTail], c, len);
 872   1      //    memset(&uart1_RxBuf[uart1_RxTail], c, len);
 873   1      }
 874          
 875          // ---------------------------------------------------------------------------------------
 876          // Name    : byte uart1_RxBufCmp(byte c)
 877          // Purpose : compary the two arrays
 878          // Params  : pointer to the array to compare, number of bytes to compare
 879          // Returns : 0 if equal !0 if not equal
 880          // Note    : none
 881          // ---------------------------------------------------------------------------------------
C51 COMPILER V8.06   UART                                                                  03/10/2026 15:30:57 PAGE 36  

 882          byte uart1_RxBufCmp(byte *pData,byte len)
 883          {
 884   1            uint offset;
 885   1            byte result;
 886   1            
 887   1            if((uart1_RxTail + len) > MAX_RX_UART1_BUF_SIZE)
 888   1              {
 889   2              offset = MAX_RX_UART1_BUF_SIZE - uart1_RxTail;
 890   2              result = memcmp(&uart1_RxBuf[uart1_RxTail], pData, offset);
 891   2              result |= memcmp(&uart1_RxBuf[0], pData+offset, len - offset);
 892   2              }
 893   1            else
 894   1              result = memcmp(&uart1_RxBuf[uart1_RxTail], pData, len);
 895   1      
 896   1            return result;
 897   1      }
 898          
 899          // ---------------------------------------------------------------------------------------
 900          // Name    : uart1_GetByteCount
 901          // Purpose : return the number of bytes waiting in the buffer.
 902          // Params  : none
 903          // Returns : number of characters in the buffer
 904          // Note    : none
 905          // ---------------------------------------------------------------------------------------
 906          uint uart1_GetByteCount(void)
 907          {
 908   1            return uart1_RxCount;
 909   1      }
 910          
 911          // ---------------------------------------------------------------------------------------
 912          // Name    : uart1_DisplayRxPointers
 913          // Purpose : display in the debug window the ring buffer pointers to the user.
 914          // Params  : byte crlf
 915          // Returns : none
 916          // Note    : none
 917          // ---------------------------------------------------------------------------------------
 918          void uart1_DisplayRxPointers(byte crlf)
 919          {
 920   1            printd("--RxHead %04dx, RxTail %04dx, RxCnt %du-- ",uart1_RxHead ,uart1_RxTail ,uart1_RxCount);
 921   1            if(crlf == 0)printd("\n\r");
 922   1      }
 923          
 924          // ---------------------------------------------------------------------------------------
 925          // Name    : uart_ShowBuffer
 926          // Purpose : display in the debug window the current contents of the uart ring buffer
 927          // Params  : none
 928          // Returns : none
 929          // Note    : none
 930          // ---------------------------------------------------------------------------------------
 931          void uart_ShowBuffer(byte* pd, byte eol)
 932          {
 933   1            uint i;
 934   1      
 935   1            for(i = 0;i < eol;i++)
 936   1              {
 937   2              if((i % 16) == 0) printd("\n\r%04dx :",i);
 938   2              printd(" %02bx",*(pd+i));
 939   2              }
 940   1            printd("\n\r************************************************************************\n\r");
 941   1      }
 942          
 943          // ---------------------------------------------------------------------------------------
C51 COMPILER V8.06   UART                                                                  03/10/2026 15:30:57 PAGE 37  

 944          // Name    : static char uart1_NoBlockGetkey(void)
 945          // Purpose : UART1 input function. This function replies one byte data from the
 946          //           software character buffer. But it only check the buffer one time.
 947          //           If no data, it will reply a FALSE condition.
 948          // Params  : none
 949          // Returns : c - one byte character.
 950          // Note    : none
 951          // ---------------------------------------------------------------------------------------
 952          char uart1_NoBlockGetkey (void)
 953          {
 954   1          char c = 0;
 955   1      
 956   1            if (uart1_RxCount !=0 )
 957   1              {
 958   2              EA = 0;
 959   2              uart1_RxCount--;
 960   2              EA = 1;
 961   2              c = uart1_RxBuf[uart1_RxTail];
 962   2              uart1_RxTail++;
 963   2              uart1_RxTail &= MAX_RX_UART1_MASK;
 964   2              return c;
 965   2              }
 966   1            else
 967   1              {
 968   2              return FALSE;
 969   2              }
 970   1      }
 971          
 972          // ---------------------------------------------------------------------------------------
 973          // Name    : byte uart1_TxChk(void)
 974          // Purpose : Initiating the UART1 to work in power management mode.
 975          // Params  : none
 976          // Returns : none
 977          // Note    : none
 978          // ---------------------------------------------------------------------------------------
 979          byte  uart1_TxChk(void)
 980          {
 981   1         return(uart1_TxFlag);
 982   1      }
 983          
 984          uint UA1_GetCount(void)
 985          {
 986   1         return(uart1_RxCount);
 987   1      }
 988          
 989          
 990          // EXPORTED SUBPROGRAM BODIES //
 991          
 992          // ---------------------------------------------------------------------------------------
 993          // Name    : uart_Init
 994          // Purpose : UART initial function. It will call a real initial function
 995          //           corresponding to the used UART port.
 996          // Params  : which port, & baudrate
 997          // Returns : none
 998          // Note    : none
 999          // ---------------------------------------------------------------------------------------
1000          void uart_Init(byte port, baudrate, parity)
1001          {
1002   1            if (port == 0)
1003   1              {
1004   2              uart0_Init(baudrate, parity);
1005   2              }
C51 COMPILER V8.06   UART                                                                  03/10/2026 15:30:57 PAGE 38  

1006   1            else if (port == 1)
1007   1              {
1008   2              uart1_Init(baudrate, parity);
1009   2              }
1010   1      }
1011          
1012          // ---------------------------------------------------------------------------------------
1013          // Name    : bool UART_ParityChk(char checkByte)
1014          // Purpose : find the number of bits in a byte and set report the parity state to the calling routine
1015          // Params  : checkByte - the byte of data to find the checksum
1016          // Returns : TRUE - odd parity ; FALSE - even parity.
1017          // Note    : none
1018          // ---------------------------------------------------------------------------------------
1019          bool UART_ParityChk(char checkByte)
1020          {
1021   1            byte  bitSum;
1022   1            uint  i;
1023   1      
1024   1            bitSum = 0;                                                                         // set one bit c
             -ount to 0
1025   1            for (i = 0; i <= 7; i++)                                                            // loop through 
             -byte to find all bits that equal 1
1026   1              {
1027   2              if (checkByte & (BIT0 << i))                                                      // check if bit 
             -is equal to 1
1028   2                {
1029   3                bitSum ++;                                                                      // it is a 1 add
             - to the bit count
1030   3                }
1031   2              }
1032   1            if ((bitSum % 2) == 0)                                                              // find if there
             - is an even number of '1's
1033   1              return FALSE;                                                                     // if sum of '1'
             - bits is even, return 0      
1034   1            return TRUE;                                                                        // if sum of '1'
             - bits is odd, return 1
1035   1      }
1036          
1037          // ---------------------------------------------------------------------------------------
1038          // Name    : bool UART_SetPort(byte portNum)
1039          // Purpose : Setting which UART port will be used.
1040          // Params  : portNum - uart port number (0~2).
1041          // Returns : none
1042          // Note    : none
1043          // ---------------------------------------------------------------------------------------
1044          bool UART_SetPort(byte portNum)
1045          {
1046   1            uart_Init((portNum & 0x03),Baud___9600, FALSE);
1047   1            return TRUE;
1048   1      }
1049          
1050          // End of uart.c //
C51 COMPILER V8.06   UART                                                                  03/10/2026 15:30:57 PAGE 39  

ASSEMBLY LISTING OF GENERATED OBJECT CODE


             ; FUNCTION Com00D0 (BEGIN)
0000         L?0209:
0000 FD                MOV     R5,A
0001 C3                CLR     C
0002 EF                MOV     A,R7
0003 9D                SUBB    A,R5
0004 FF                MOV     R7,A
0005 E4                CLR     A
0006 9C                SUBB    A,R4
0007 FE                MOV     R6,A
0008         L?0210:
0008 E0                MOVX    A,@DPTR
0009 FB                MOV     R3,A
000A A3                INC     DPTR
000B E0                MOVX    A,@DPTR
000C FA                MOV     R2,A
000D A3                INC     DPTR
000E E0                MOVX    A,@DPTR
000F 22                RET     
0010         L?0213:
0010 C2AF              CLR     EA
0012 90000000    R     MOV     DPTR,#uart0_RxCount+01H
0016 E0                MOVX    A,@DPTR
0017 24FF              ADD     A,#0FFH
0019 F0                MOVX    @DPTR,A
001A 90000000    R     MOV     DPTR,#uart0_RxCount
001E E0                MOVX    A,@DPTR
001F 34FF              ADDC    A,#0FFH
0021 F0                MOVX    @DPTR,A
0022 D2AF              SETB    EA
0024 90000000    R     MOV     DPTR,#uart0_RxTail
0028         L?0214:
0028 A3                INC     DPTR
0029 E0                MOVX    A,@DPTR
002A         L?0215:
002A 2400        R     ADD     A,#LOW uart0_RxBuf
002C F582              MOV     DPL,A
002E E4                CLR     A
002F 3400        R     ADDC    A,#HIGH uart0_RxBuf
0031         L?0216:
0031 F583              MOV     DPH,A
0033 759300      E     MOV     DPX,#?C?XDATASEG
0036 E0                MOVX    A,@DPTR
0037 22                RET     
0038         L?0218:
0038 EB                MOV     A,R3
0039 F0                MOVX    @DPTR,A
003A A3                INC     DPTR
003B EA                MOV     A,R2
003C F0                MOVX    @DPTR,A
003D A3                INC     DPTR
003E E9                MOV     A,R1
003F F0                MOVX    @DPTR,A
0040 A3                INC     DPTR
0041 ED                MOV     A,R5
0042 F0                MOVX    @DPTR,A
0043 FF                MOV     R7,A
0044 90000000    R     MOV     DPTR,#uart0_RxTail+01H
0048 E0                MOVX    A,@DPTR
C51 COMPILER V8.06   UART                                                                  03/10/2026 15:30:57 PAGE 40  

0049 90000000    R     MOV     DPTR,#uart0_RxTail
004D         L?0219:
004D 2F                ADD     A,R7
004E FF                MOV     R7,A
004F         L?0220:
004F E0                MOVX    A,@DPTR
0050 3400              ADDC    A,#00H
0052         L?0221:
0052 FE                MOV     R6,A
0053 D3                SETB    C
0054 EF                MOV     A,R7
0055 9400              SUBB    A,#00H
0057 EE                MOV     A,R6
0058 9401              SUBB    A,#01H
005A 22                RET     
005B         L?0223:
005B 7401              MOV     A,#01H
005D 9E                SUBB    A,R6
005E         L?0224:
005E F0                MOVX    @DPTR,A
005F E0                MOVX    A,@DPTR
0060 FC                MOV     R4,A
0061 A3                INC     DPTR
0062 E0                MOVX    A,@DPTR
0063 FD                MOV     R5,A
0064 AE04              MOV     R6,AR4
0066 22                RET     
0067         L?0226:
0067 C2AF              CLR     EA
0069 90000000    R     MOV     DPTR,#uart1_RxCount+01H
006D E0                MOVX    A,@DPTR
006E 24FF              ADD     A,#0FFH
0070 F0                MOVX    @DPTR,A
0071 90000000    R     MOV     DPTR,#uart1_RxCount
0075 E0                MOVX    A,@DPTR
0076 34FF              ADDC    A,#0FFH
0078 F0                MOVX    @DPTR,A
0079 D2AF              SETB    EA
007B         L?0227:
007B 90000000    R     MOV     DPTR,#uart1_RxTail
007F A3                INC     DPTR
0080 E0                MOVX    A,@DPTR
0081 2400        R     ADD     A,#LOW uart1_RxBuf
0083 22                RET     
0084         L?0228:
0084         L?0229:
0084 E0                MOVX    A,@DPTR
0085 FF                MOV     R7,A
0086 A3                INC     DPTR
0087 E0                MOVX    A,@DPTR
0088 FC                MOV     R4,A
0089 A3                INC     DPTR
008A E0                MOVX    A,@DPTR
008B FD                MOV     R5,A
008C C3                CLR     C
008D EF                MOV     A,R7
008E 9D                SUBB    A,R5
008F FF                MOV     R7,A
0090 E4                CLR     A
0091 9C                SUBB    A,R4
0092 FE                MOV     R6,A
0093 22                RET     
C51 COMPILER V8.06   UART                                                                  03/10/2026 15:30:57 PAGE 41  

0094         L?0231:
0094         L?0232:
0094 EB                MOV     A,R3
0095 F0                MOVX    @DPTR,A
0096 A3                INC     DPTR
0097 EA                MOV     A,R2
0098 F0                MOVX    @DPTR,A
0099 A3                INC     DPTR
009A E9                MOV     A,R1
009B F0                MOVX    @DPTR,A
009C A3                INC     DPTR
009D ED                MOV     A,R5
009E F0                MOVX    @DPTR,A
009F 22                RET     
00A0         L?0233:
00A0 04                INC     A
00A1 F0                MOVX    @DPTR,A
00A2         L?0234:
00A2 90000000    R     MOV     DPTR,#uart0_TxTail
00A6         L?0235:
00A6 A3                INC     DPTR
00A7 E0                MOVX    A,@DPTR
00A8 2400        R     ADD     A,#LOW uart0_TxBuf
00AA F582              MOV     DPL,A
00AC E4                CLR     A
00AD 3400        R     ADDC    A,#HIGH uart0_TxBuf
00AF 22                RET     
00B0         L?0236:
00B0         L?0237:
00B0 E0                MOVX    A,@DPTR
00B1 FE                MOV     R6,A
00B2 A3                INC     DPTR
00B3 E0                MOVX    A,@DPTR
00B4 FF                MOV     R7,A
00B5 E4                CLR     A
00B6 9F                SUBB    A,R7
00B7 22                RET     
00B8         L?0238:
00B8 04                INC     A
00B9 F0                MOVX    @DPTR,A
00BA         L?0239:
00BA 90000000    R     MOV     DPTR,#uart1_TxTail
00BE         L?0240:
00BE A3                INC     DPTR
00BF E0                MOVX    A,@DPTR
00C0 2400        R     ADD     A,#LOW uart1_TxBuf
00C2 F582              MOV     DPL,A
00C4 E4                CLR     A
00C5 3400        R     ADDC    A,#HIGH uart1_TxBuf
00C7 22                RET     
00C8         L?0242:
00C8 90000000    R     MOV     DPTR,#uart0_RxTail
00CC A3                INC     DPTR
00CD E0                MOVX    A,@DPTR
00CE 2400        R     ADD     A,#LOW uart0_RxBuf
00D0         L?0243:
00D0 F9                MOV     R1,A
00D1 E4                CLR     A
00D2 3400        R     ADDC    A,#HIGH uart0_RxBuf
00D4 FA                MOV     R2,A
00D5 7B00        R     MOV     R3,#MBYTE uart0_RxBuf
00D7 22                RET     
C51 COMPILER V8.06   UART                                                                  03/10/2026 15:30:57 PAGE 42  

00D8         L?0244:
00D8 7400        R     MOV     A,#LOW uart1_RxBuf
00DA 2F                ADD     A,R7
00DB         L?0245:
00DB F9                MOV     R1,A
00DC E4                CLR     A
00DD 3400        R     ADDC    A,#HIGH uart1_RxBuf
00DF FA                MOV     R2,A
00E0 7B00        R     MOV     R3,#MBYTE uart1_RxBuf
00E2 22                RET     
00E3         L?0246:
00E3 A3                INC     DPTR
00E4 A3                INC     DPTR
00E5         L?0247:
00E5 E0                MOVX    A,@DPTR
00E6 FF                MOV     R7,A
00E7 A3                INC     DPTR
00E8 E0                MOVX    A,@DPTR
00E9 FC                MOV     R4,A
00EA A3                INC     DPTR
00EB E0                MOVX    A,@DPTR
00EC 22                RET     
00ED         L?0248:
00ED         L?0249:
00ED EF                MOV     A,R7
00EE F0                MOVX    @DPTR,A
00EF A3                INC     DPTR
00F0 EC                MOV     A,R4
00F1 F0                MOVX    @DPTR,A
00F2 A3                INC     DPTR
00F3 ED                MOV     A,R5
00F4 F0                MOVX    @DPTR,A
00F5 22                RET     
00F6         L?0250:
00F6 E0                MOVX    A,@DPTR
00F7 FF                MOV     R7,A
00F8 A3                INC     DPTR
00F9 E0                MOVX    A,@DPTR
00FA CF                XCH     A,R7
00FB         L?0251:
00FB 90000000    E     MOV     DPTR,#?_printd?BYTE+03H
00FF F0                MOVX    @DPTR,A
0100 A3                INC     DPTR
0101 EF                MOV     A,R7
0102 F0                MOVX    @DPTR,A
0103 22                RET     
0104         L?0253:
0104         L?0254:
0104 F583              MOV     DPH,A
0106 759300      E     MOV     DPX,#?C?XDATASEG
0109 EF                MOV     A,R7
010A F0                MOVX    @DPTR,A
010B 22                RET     
010C         L?0255:
010C 7E01              MOV     R6,#01H
010E 7F00              MOV     R7,#00H
0110 7D00              MOV     R5,#00H
0112 02000000    E     LJMP    ?C?MEMSET
0116         L?0256:
0116 F9                MOV     R1,A
0117 E4                CLR     A
0118 3400        R     ADDC    A,#HIGH uart0_TxBuf
C51 COMPILER V8.06   UART                                                                  03/10/2026 15:30:57 PAGE 43  

011A A801              MOV     R0,AR1
011C FC                MOV     R4,A
011D 7D00        R     MOV     R5,#MBYTE uart0_TxBuf
011F 90000000    R     MOV     DPTR,#pData
0123 22                RET     
0124         L?0257:
0124 F9                MOV     R1,A
0125 E4                CLR     A
0126 3400        R     ADDC    A,#HIGH uart0_RxBuf
0128 A801              MOV     R0,AR1
012A FC                MOV     R4,A
012B 7D00        R     MOV     R5,#MBYTE uart0_RxBuf
012D 90000000    R     MOV     DPTR,#pData
0131 22                RET     
0132         L?0258:
0132 E0                MOVX    A,@DPTR
0133 FF                MOV     R7,A
0134 A3                INC     DPTR
0135 E0                MOVX    A,@DPTR
0136 90000000    E     MOV     DPTR,#?_printd?BYTE+05H
013A CF                XCH     A,R7
013B F0                MOVX    @DPTR,A
013C A3                INC     DPTR
013D EF                MOV     A,R7
013E F0                MOVX    @DPTR,A
013F 22                RET     
0140         L?0259:
0140 E0                MOVX    A,@DPTR
0141 FF                MOV     R7,A
0142 A3                INC     DPTR
0143 E0                MOVX    A,@DPTR
0144 90000000    E     MOV     DPTR,#?_printd?BYTE+07H
0148 CF                XCH     A,R7
0149 F0                MOVX    @DPTR,A
014A A3                INC     DPTR
014B EF                MOV     A,R7
014C F0                MOVX    @DPTR,A
014D 22                RET     
014E         L?0260:
014E F9                MOV     R1,A
014F E4                CLR     A
0150 3400        R     ADDC    A,#HIGH uart1_TxBuf
0152 A801              MOV     R0,AR1
0154 FC                MOV     R4,A
0155 7D00        R     MOV     R5,#MBYTE uart1_TxBuf
0157 90000000    R     MOV     DPTR,#pData
015B 22                RET     
015C         L?0261:
015C F9                MOV     R1,A
015D E4                CLR     A
015E 3400        R     ADDC    A,#HIGH uart1_RxBuf
0160 A801              MOV     R0,AR1
0162 FC                MOV     R4,A
0163 7D00        R     MOV     R5,#MBYTE uart1_RxBuf
0165 90000000    R     MOV     DPTR,#pData
0169 22                RET     
016A         L?0262:
016A F9                MOV     R1,A
016B 12000000    E     LCALL   ?C?CLDPTR
016F C3                CLR     C
0170 9F                SUBB    A,R7
0171 FF                MOV     R7,A
C51 COMPILER V8.06   UART                                                                  03/10/2026 15:30:57 PAGE 44  

0172 E4                CLR     A
0173 9400              SUBB    A,#00H
0175 FE                MOV     R6,A
0176 22                RET     
0177         L?0263:
0177 7401              MOV     A,#01H
0179 9C                SUBB    A,R4
017A F0                MOVX    @DPTR,A
017B E0                MOVX    A,@DPTR
017C FA                MOV     R2,A
017D A3                INC     DPTR
017E E0                MOVX    A,@DPTR
017F FB                MOV     R3,A
0180 AE02              MOV     R6,AR2
0182 22                RET     
0183         L?0264:
0183 E0                MOVX    A,@DPTR
0184 FD                MOV     R5,A
0185 7C00              MOV     R4,#00H
0187 2F                ADD     A,R7
0188 FB                MOV     R3,A
0189 EC                MOV     A,R4
018A 3E                ADDC    A,R6
018B FA                MOV     R2,A
018C EB                MOV     A,R3
018D 22                RET     
018E         L?0265:
018E 12000000    E     LCALL   ?C?MEMCMP
0192 90000000    R     MOV     DPTR,#result
0196 EF                MOV     A,R7
0197 F0                MOVX    @DPTR,A
0198 22                RET     
0199         L?0266:
0199 12000000    E     LCALL   ?C?MEMCMP
019D 90000000    R     MOV     DPTR,#result
01A1 EF                MOV     A,R7
01A2 F0                MOVX    @DPTR,A
01A3 22                RET     
01A4         L?0267:
01A4 E0                MOVX    A,@DPTR
01A5 34FF              ADDC    A,#0FFH
01A7 F0                MOVX    @DPTR,A
01A8 D3                SETB    C
01A9 A3                INC     DPTR
01AA E0                MOVX    A,@DPTR
01AB 9400              SUBB    A,#00H
01AD 22                RET     
01AE         L?0268:
01AE         L?0269:
01AE 7B00        R     MOV     R3,#MBYTE ?SC_411
01B0 7A00        R     MOV     R2,#HIGH ?SC_411
01B2 7900        R     MOV     R1,#LOW ?SC_411
01B4 22                RET     
01B5         L?0270:
01B5 F0                MOVX    @DPTR,A
01B6 A3                INC     DPTR
01B7 F0                MOVX    @DPTR,A
01B8 A3                INC     DPTR
01B9 F0                MOVX    @DPTR,A
01BA A3                INC     DPTR
01BB F0                MOVX    @DPTR,A
01BC 7E01              MOV     R6,#01H
C51 COMPILER V8.06   UART                                                                  03/10/2026 15:30:57 PAGE 45  

01BE 22                RET     
01BF         L?0271:
01BF         L?0272:
01BF 7B00        R     MOV     R3,#MBYTE uart0_RxBuf
01C1 7A00        R     MOV     R2,#HIGH uart0_RxBuf
01C3 7900        R     MOV     R1,#LOW uart0_RxBuf
01C5 22                RET     
01C6         L?0273:
01C6 2D                ADD     A,R5
01C7 F9                MOV     R1,A
01C8 EA                MOV     A,R2
01C9 3C                ADDC    A,R4
01CA A801              MOV     R0,AR1
01CC FC                MOV     R4,A
01CD AD03              MOV     R5,AR3
01CF 22                RET     
01D0         L?0274:
01D0 90000000    R     MOV     DPTR,#uart0_RxCount
01D4 E0                MOVX    A,@DPTR
01D5 FE                MOV     R6,A
01D6 A3                INC     DPTR
01D7 E0                MOVX    A,@DPTR
01D8 FF                MOV     R7,A
01D9 22                RET     
01DA         L?0275:
01DA 90000000    R     MOV     DPTR,#uart0_RxTail+01H
01DE E0                MOVX    A,@DPTR
01DF 2D                ADD     A,R5
01E0 22                RET     
01E1         L?0276:
01E1         L?0277:
01E1 90000000    R     MOV     DPTR,#c
01E5 E0                MOVX    A,@DPTR
01E6 FD                MOV     R5,A
01E7 22                RET     
01E8         L?0278:
01E8         L?0279:
01E8 E0                MOVX    A,@DPTR
01E9 FE                MOV     R6,A
01EA A3                INC     DPTR
01EB E0                MOVX    A,@DPTR
01EC FF                MOV     R7,A
01ED C3                CLR     C
01EE 22                RET     
01EF         L?0280:
01EF         L?0281:
01EF 7B00        R     MOV     R3,#MBYTE uart1_RxBuf
01F1 7A00        R     MOV     R2,#HIGH uart1_RxBuf
01F3 7900        R     MOV     R1,#LOW uart1_RxBuf
01F5 22                RET     
01F6         L?0282:
01F6         L?0283:
01F6 90000000    R     MOV     DPTR,#c
01FA E0                MOVX    A,@DPTR
01FB FD                MOV     R5,A
01FC 22                RET     
01FD         L?0284:
01FD 90000000    R     MOV     DPTR,#uart1_RxCount
0201 E0                MOVX    A,@DPTR
0202 FE                MOV     R6,A
0203 A3                INC     DPTR
0204 E0                MOVX    A,@DPTR
C51 COMPILER V8.06   UART                                                                  03/10/2026 15:30:57 PAGE 46  

0205 FF                MOV     R7,A
0206 22                RET     
             ; FUNCTION Com00D0 (END)

             ; FUNCTION uart0_ISR (BEGIN)
0000 C0E0              PUSH    ACC
0002 C093              PUSH    DPX
0004 C083              PUSH    DPH
0006 C082              PUSH    DPL
0008 C0D0              PUSH    PSW
000A 75D000            MOV     PSW,#00H
000D C007              PUSH    AR7
                                           ; SOURCE LINE # 105
                                           ; SOURCE LINE # 108
;---- Variable 'tmp' assigned to Register 'R7' ----
                                           ; SOURCE LINE # 110
000F 30984C            JNB     RI0,?C0001
                                           ; SOURCE LINE # 111
                                           ; SOURCE LINE # 112
0012 C2AF              CLR     EA
                                           ; SOURCE LINE # 113
0014 90000000    R     MOV     DPTR,#uart0_RxCount
0018 E0                MOVX    A,@DPTR
0019 6401              XRL     A,#01H
001B 7002              JNZ     ?C0150
001D A3                INC     DPTR
001E E0                MOVX    A,@DPTR
001F         ?C0150:
001F 6039              JZ      ?C0002
                                           ; SOURCE LINE # 114
                                           ; SOURCE LINE # 115
0021 AF99              MOV     R7,SBUF0
                                           ; SOURCE LINE # 133
0023 90000000    R     MOV     DPTR,#uart0_RxHead
0027 A3                INC     DPTR
0028 E0                MOVX    A,@DPTR
0029 2400        R     ADD     A,#LOW uart0_RxBuf
002B F582              MOV     DPL,A
002D E4                CLR     A
002E 3400        R     ADDC    A,#HIGH uart0_RxBuf
0030 12000000    R     LCALL   L?0253
                                           ; SOURCE LINE # 134
0034 90000000    R     MOV     DPTR,#uart0_RxCount+01H
0038 E0                MOVX    A,@DPTR
0039 04                INC     A
003A F0                MOVX    @DPTR,A
003B 7007              JNZ     ?C0151
003D 90000000    R     MOV     DPTR,#uart0_RxCount
0041 E0                MOVX    A,@DPTR
0042 04                INC     A
0043 F0                MOVX    @DPTR,A
0044         ?C0151:
                                           ; SOURCE LINE # 135
0044 90000000    R     MOV     DPTR,#uart0_RxHead+01H
0048 E0                MOVX    A,@DPTR
0049 04                INC     A
004A F0                MOVX    @DPTR,A
004B 7007              JNZ     ?C0152
004D 90000000    R     MOV     DPTR,#uart0_RxHead
0051 E0                MOVX    A,@DPTR
0052 04                INC     A
0053 F0                MOVX    @DPTR,A
C51 COMPILER V8.06   UART                                                                  03/10/2026 15:30:57 PAGE 47  

0054         ?C0152:
                                           ; SOURCE LINE # 136
0054 90000000    R     MOV     DPTR,#uart0_RxHead
0058 E4                CLR     A
0059 F0                MOVX    @DPTR,A
                                           ; SOURCE LINE # 138
005A         ?C0002:
                                           ; SOURCE LINE # 139
005A C298              CLR     RI0
                                           ; SOURCE LINE # 140
005C D2AF              SETB    EA
                                           ; SOURCE LINE # 141
005E         ?C0001:
                                           ; SOURCE LINE # 142
005E 309947            JNB     TI0,?C0006
                                           ; SOURCE LINE # 143
                                           ; SOURCE LINE # 144
0061 C2AF              CLR     EA
                                           ; SOURCE LINE # 145
0063 90000000    R     MOV     DPTR,#uart0_TxTail+01H
0067 E0                MOVX    A,@DPTR
0068 04                INC     A
0069 F0                MOVX    @DPTR,A
006A 7007              JNZ     ?C0153
006C 90000000    R     MOV     DPTR,#uart0_TxTail
0070 E0                MOVX    A,@DPTR
0071 04                INC     A
0072 F0                MOVX    @DPTR,A
0073         ?C0153:
                                           ; SOURCE LINE # 146
0073 90000000    R     MOV     DPTR,#uart0_TxTail
0077 E4                CLR     A
0078 F0                MOVX    @DPTR,A
                                           ; SOURCE LINE # 147
0079 90000000    R     MOV     DPTR,#uart0_TxCount+01H
007D E0                MOVX    A,@DPTR
007E 24FF              ADD     A,#0FFH
0080 F0                MOVX    @DPTR,A
0081 90000000    R     MOV     DPTR,#uart0_TxCount
                                           ; SOURCE LINE # 148
0085 12000000    R     LCALL   L?0267
0089 90000000    R     MOV     DPTR,#uart0_TxCount
008D E0                MOVX    A,@DPTR
008E 9400              SUBB    A,#00H
0090 400C              JC      ?C0004
                                           ; SOURCE LINE # 149
                                           ; SOURCE LINE # 150
0092 12000000    R     LCALL   L?0234
0096 12000000    R     LCALL   L?0216
009A F599              MOV     SBUF0,A
                                           ; SOURCE LINE # 159
009C 8006              SJMP    ?C0005
009E         ?C0004:
                                           ; SOURCE LINE # 161
                                           ; SOURCE LINE # 162
009E 90000000    R     MOV     DPTR,#uart0_TxFlag
00A2 E4                CLR     A
00A3 F0                MOVX    @DPTR,A
                                           ; SOURCE LINE # 163
00A4         ?C0005:
                                           ; SOURCE LINE # 164
00A4 C299              CLR     TI0
C51 COMPILER V8.06   UART                                                                  03/10/2026 15:30:57 PAGE 48  

                                           ; SOURCE LINE # 165
00A6 D2AF              SETB    EA
                                           ; SOURCE LINE # 166
                                           ; SOURCE LINE # 167
00A8         ?C0006:
00A8 D007              POP     AR7
00AA D0D0              POP     PSW
00AC D082              POP     DPL
00AE D083              POP     DPH
00B0 D093              POP     DPX
00B2 D0E0              POP     ACC
00B4 32                RETI    
             ; FUNCTION uart0_ISR (END)

             ; FUNCTION _uart0_setBaudRate (BEGIN)
                                           ; SOURCE LINE # 176
;---- Variable 'baudrate' assigned to Register 'R7' ----
                                           ; SOURCE LINE # 177
                                           ; SOURCE LINE # 182
0000 E58F              MOV     A,CSREPR
0002 54C0              ANL     A,#0C0H
0004 90000000    R     MOV     DPTR,#sysClk
0008 F0                MOVX    @DPTR,A
                                           ; SOURCE LINE # 183
0009 E0                MOVX    A,@DPTR
000A 4F                ORL     A,R7
000B 90000000    R     MOV     DPTR,#t
000F F0                MOVX    @DPTR,A
                                           ; SOURCE LINE # 184
0010 12000000    E     LCALL   ?C?CCASE
0014 0000        R     DW      ?C0008
0016 00                DB      00H
0017 0000        R     DW      ?C0009
0019 01                DB      01H
001A 0000        R     DW      ?C0010
001C 02                DB      02H
001D 0000        R     DW      ?C0011
001F 03                DB      03H
0020 0000        R     DW      ?C0012
0022 04                DB      04H
0023 0000        R     DW      ?C0013
0025 05                DB      05H
0026 0000        R     DW      ?C0014
0028 06                DB      06H
0029 0000        R     DW      ?C0015
002B 07                DB      07H
002C 0000        R     DW      ?C0016
002E 08                DB      08H
002F 0000        R     DW      ?C0017
0031 09                DB      09H
0032 0000        R     DW      ?C0018
0034 0A                DB      0AH
0035 0000        R     DW      ?C0019
0037 40                DB      040H
0038 0000        R     DW      ?C0020
003A 41                DB      041H
003B 0000        R     DW      ?C0021
003D 42                DB      042H
003E 0000        R     DW      ?C0022
0040 43                DB      043H
0041 0000        R     DW      ?C0023
0043 44                DB      044H
C51 COMPILER V8.06   UART                                                                  03/10/2026 15:30:57 PAGE 49  

0044 0000        R     DW      ?C0024
0046 45                DB      045H
0047 0000        R     DW      ?C0025
0049 46                DB      046H
004A 0000        R     DW      ?C0026
004C 47                DB      047H
004D 0000        R     DW      ?C0027
004F 48                DB      048H
0050 0000        R     DW      ?C0028
0052 49                DB      049H
0053 0000        R     DW      ?C0029
0055 4A                DB      04AH
0056 0000        R     DW      ?C0030
0058 C0                DB      0C0H
0059 0000        R     DW      ?C0031
005B C1                DB      0C1H
005C 0000        R     DW      ?C0032
005E C2                DB      0C2H
005F 0000        R     DW      ?C0033
0061 C3                DB      0C3H
0062 0000        R     DW      ?C0034
0064 C4                DB      0C4H
0065 0000        R     DW      ?C0035
0067 C5                DB      0C5H
0068 0000        R     DW      ?C0036
006A C6                DB      0C6H
006B 0000        R     DW      ?C0037
006D C7                DB      0C7H
006E 0000        R     DW      ?C0038
0070 C8                DB      0C8H
0071 0000        R     DW      ?C0039
0073 C9                DB      0C9H
0074 0000        R     DW      ?C0040
0076 CA                DB      0CAH
0077 0000              DW      00H
0079 0000        R     DW      ?C0041
                                           ; SOURCE LINE # 185
                                           ; SOURCE LINE # 186
007B         ?C0008:
007B 7B00        R     MOV     R3,#MBYTE ?SC_0
007D 7A00        R     MOV     R2,#HIGH ?SC_0
007F 7900        R     MOV     R1,#LOW ?SC_0
0081 010000      R     AJMP    ?C0195
                                           ; SOURCE LINE # 187
0084         ?C0009:
0084 7B00        R     MOV     R3,#MBYTE ?SC_11
0086 7A00        R     MOV     R2,#HIGH ?SC_11
0088 7900        R     MOV     R1,#LOW ?SC_11
008A 010000      R     AJMP    ?C0189
                                           ; SOURCE LINE # 188
008D         ?C0010:
008D 7B00        R     MOV     R3,#MBYTE ?SC_22
008F 7A00        R     MOV     R2,#HIGH ?SC_22
0091 7900        R     MOV     R1,#LOW ?SC_22
0093 010000      R     AJMP    ?C0190
                                           ; SOURCE LINE # 189
0096         ?C0011:
0096 7B00        R     MOV     R3,#MBYTE ?SC_33
0098 7A00        R     MOV     R2,#HIGH ?SC_33
009A 7900        R     MOV     R1,#LOW ?SC_33
009C 010000      R     AJMP    ?C0191
                                           ; SOURCE LINE # 190
C51 COMPILER V8.06   UART                                                                  03/10/2026 15:30:57 PAGE 50  

009F         ?C0012:
009F 7B00        R     MOV     R3,#MBYTE ?SC_44
00A1 7A00        R     MOV     R2,#HIGH ?SC_44
00A3 7900        R     MOV     R1,#LOW ?SC_44
00A5 010000      R     AJMP    ?C0193
                                           ; SOURCE LINE # 191
00A8         ?C0013:
00A8 7B00        R     MOV     R3,#MBYTE ?SC_56
00AA 7A00        R     MOV     R2,#HIGH ?SC_56
00AC 7900        R     MOV     R1,#LOW ?SC_56
00AE 010000      R     AJMP    ?C0194
                                           ; SOURCE LINE # 192
00B1         ?C0014:
00B1 7B00        R     MOV     R3,#MBYTE ?SC_68
00B3 7A00        R     MOV     R2,#HIGH ?SC_68
00B5 7900        R     MOV     R1,#LOW ?SC_68
00B7 010000      R     AJMP    ?C0185
                                           ; SOURCE LINE # 193
00BA         ?C0015:
00BA 7B00        R     MOV     R3,#MBYTE ?SC_80
00BC 7A00        R     MOV     R2,#HIGH ?SC_80
00BE 7900        R     MOV     R1,#LOW ?SC_80
00C0 010000      R     AJMP    ?C0186
                                           ; SOURCE LINE # 194
00C3         ?C0016:
00C3 7B00        R     MOV     R3,#MBYTE ?SC_92
00C5 7A00        R     MOV     R2,#HIGH ?SC_92
00C7 7900        R     MOV     R1,#LOW ?SC_92
00C9 12000000    R     LCALL   L?0211
00CD 74F6              MOV     A,#0F6H
00CF F0                MOVX    @DPTR,A
00D0 010000      R     AJMP    ?C0007
                                           ; SOURCE LINE # 195
00D3         ?C0017:
00D3 7B00        R     MOV     R3,#MBYTE ?SC_104
00D5 7A00        R     MOV     R2,#HIGH ?SC_104
00D7 7900        R     MOV     R1,#LOW ?SC_104
00D9 12000000    R     LCALL   L?0211
00DD 74F8              MOV     A,#0F8H
00DF F0                MOVX    @DPTR,A
00E0 010000      R     AJMP    ?C0007
                                           ; SOURCE LINE # 196
00E3         ?C0018:
00E3 7B00        R     MOV     R3,#MBYTE ?SC_116
00E5 7A00        R     MOV     R2,#HIGH ?SC_116
00E7 7900        R     MOV     R1,#LOW ?SC_116
00E9 12000000    R     LCALL   L?0212
00ED 74F9              MOV     A,#0F9H
00EF F0                MOVX    @DPTR,A
00F0 010000      R     AJMP    ?C0007
                                           ; SOURCE LINE # 198
00F3         ?C0019:
00F3 7B00        R     MOV     R3,#MBYTE ?SC_129
00F5 7A00        R     MOV     R2,#HIGH ?SC_129
00F7 7900        R     MOV     R1,#LOW ?SC_129
00F9 010000      R     AJMP    ?C0187
                                           ; SOURCE LINE # 199
00FC         ?C0020:
00FC 7B00        R     MOV     R3,#MBYTE ?SC_140
00FE 7A00        R     MOV     R2,#HIGH ?SC_140
0100 7900        R     MOV     R1,#LOW ?SC_140
0102         ?C0179:
C51 COMPILER V8.06   UART                                                                  03/10/2026 15:30:57 PAGE 51  

0102 010000      R     AJMP    ?C0195
                                           ; SOURCE LINE # 200
0105         ?C0021:
0105 7B00        R     MOV     R3,#MBYTE ?SC_151
0107 7A00        R     MOV     R2,#HIGH ?SC_151
0109 7900        R     MOV     R1,#LOW ?SC_151
010B         ?C0180:
010B 010000      R     AJMP    ?C0189
                                           ; SOURCE LINE # 201
010E         ?C0022:
010E 7B00        R     MOV     R3,#MBYTE ?SC_162
0110 7A00        R     MOV     R2,#HIGH ?SC_162
0112 7900        R     MOV     R1,#LOW ?SC_162
0114         ?C0181:
0114 010000      R     AJMP    ?C0190
                                           ; SOURCE LINE # 202
0117         ?C0023:
0117 7B00        R     MOV     R3,#MBYTE ?SC_173
0119 7A00        R     MOV     R2,#HIGH ?SC_173
011B 7900        R     MOV     R1,#LOW ?SC_173
011D         ?C0182:
011D 010000      R     AJMP    ?C0191
                                           ; SOURCE LINE # 203
0120         ?C0024:
0120 7B00        R     MOV     R3,#MBYTE ?SC_185
0122 7A00        R     MOV     R2,#HIGH ?SC_185
0124 7900        R     MOV     R1,#LOW ?SC_185
0126 010000      R     AJMP    ?C0192
                                           ; SOURCE LINE # 204
0129         ?C0025:
0129 7B00        R     MOV     R3,#MBYTE ?SC_197
012B 7A00        R     MOV     R2,#HIGH ?SC_197
012D 7900        R     MOV     R1,#LOW ?SC_197
012F         ?C0183:
012F 010000      R     AJMP    ?C0193
                                           ; SOURCE LINE # 205
0132         ?C0026:
0132 7B00        R     MOV     R3,#MBYTE ?SC_209
0134 7A00        R     MOV     R2,#HIGH ?SC_209
0136 7900        R     MOV     R1,#LOW ?SC_209
0138         ?C0184:
0138 010000      R     AJMP    ?C0194
                                           ; SOURCE LINE # 206
013B         ?C0027:
013B 7B00        R     MOV     R3,#MBYTE ?SC_221
013D 7A00        R     MOV     R2,#HIGH ?SC_221
013F 7900        R     MOV     R1,#LOW ?SC_221
0141         ?C0185:
0141 12000000    R     LCALL   L?0212
0145 74EC              MOV     A,#0ECH
0147 F0                MOVX    @DPTR,A
0148 010000      R     AJMP    ?C0007
                                           ; SOURCE LINE # 207
014B         ?C0028:
014B 7B00        R     MOV     R3,#MBYTE ?SC_233
014D 7A00        R     MOV     R2,#HIGH ?SC_233
014F 7900        R     MOV     R1,#LOW ?SC_233
0151 12000000    R     LCALL   L?0217
0155 74F0              MOV     A,#0F0H
0157 F0                MOVX    @DPTR,A
0158 010000      R     AJMP    ?C0007
                                           ; SOURCE LINE # 208
C51 COMPILER V8.06   UART                                                                  03/10/2026 15:30:57 PAGE 52  

015B         ?C0029:
015B 7B00        R     MOV     R3,#MBYTE ?SC_245
015D 7A00        R     MOV     R2,#HIGH ?SC_245
015F 7900        R     MOV     R1,#LOW ?SC_245
0161         ?C0186:
0161 12000000    R     LCALL   L?0217
0165 74F2              MOV     A,#0F2H
0167 F0                MOVX    @DPTR,A
0168 010000      R     AJMP    ?C0007
                                           ; SOURCE LINE # 210
016B         ?C0030:
016B 7B00        R     MOV     R3,#MBYTE ?SC_258
016D 7A00        R     MOV     R2,#HIGH ?SC_258
016F 7900        R     MOV     R1,#LOW ?SC_258
0171 12000000    R     LCALL   L?0230
0175 74F5              MOV     A,#0F5H
0177 F0                MOVX    @DPTR,A
0178 A3                INC     DPTR
0179 74D4              MOV     A,#0D4H
017B F0                MOVX    @DPTR,A
017C 010000      R     AJMP    ?C0007
                                           ; SOURCE LINE # 211
017F         ?C0031:
017F 7B00        R     MOV     R3,#MBYTE ?SC_270
0181 7A00        R     MOV     R2,#HIGH ?SC_270
0183 7900        R     MOV     R1,#LOW ?SC_270
0185         ?C0187:
0185 12000000    R     LCALL   L?0230
0189 74FA              MOV     A,#0FAH
018B F0                MOVX    @DPTR,A
018C A3                INC     DPTR
018D 74EA              MOV     A,#0EAH
018F F0                MOVX    @DPTR,A
0190 010000      R     AJMP    ?C0007
                                           ; SOURCE LINE # 212
0193         ?C0032:
0193 7B00        R     MOV     R3,#MBYTE ?SC_282
0195 7A00        R     MOV     R2,#HIGH ?SC_282
0197 7900        R     MOV     R1,#LOW ?SC_282
0199         ?C0188:
0199 010000      R     AJMP    ?C0195
                                           ; SOURCE LINE # 213
019C         ?C0033:
019C 7B00        R     MOV     R3,#MBYTE ?SC_294
019E 7A00        R     MOV     R2,#HIGH ?SC_294
01A0 7900        R     MOV     R1,#LOW ?SC_294
01A2         ?C0189:
01A2 12000000    R     LCALL   L?0241
01A6 74FE              MOV     A,#0FEH
01A8 F0                MOVX    @DPTR,A
01A9 A3                INC     DPTR
01AA 74BA              MOV     A,#0BAH
01AC F0                MOVX    @DPTR,A
01AD 010000      R     AJMP    ?C0007
                                           ; SOURCE LINE # 214
01B0         ?C0034:
01B0 7B00        R     MOV     R3,#MBYTE ?SC_306
01B2 7A00        R     MOV     R2,#HIGH ?SC_306
01B4 7900        R     MOV     R1,#LOW ?SC_306
01B6         ?C0190:
01B6 12000000    R     LCALL   L?0222
01BA 745D              MOV     A,#05DH
C51 COMPILER V8.06   UART                                                                  03/10/2026 15:30:57 PAGE 53  

01BC F0                MOVX    @DPTR,A
01BD 807B              SJMP    ?C0007
                                           ; SOURCE LINE # 215
01BF         ?C0035:
01BF 7B00        R     MOV     R3,#MBYTE ?SC_319
01C1 7A00        R     MOV     R2,#HIGH ?SC_319
01C3 7900        R     MOV     R1,#LOW ?SC_319
01C5 12000000    R     LCALL   L?0222
01C9 7493              MOV     A,#093H
01CB F0                MOVX    @DPTR,A
01CC 806C              SJMP    ?C0007
                                           ; SOURCE LINE # 216
01CE         ?C0036:
01CE 7B00        R     MOV     R3,#MBYTE ?SC_332
01D0 7A00        R     MOV     R2,#HIGH ?SC_332
01D2 7900        R     MOV     R1,#LOW ?SC_332
01D4         ?C0191:
01D4 12000000    R     LCALL   L?0225
01D8 74AF              MOV     A,#0AFH
01DA F0                MOVX    @DPTR,A
01DB 805D              SJMP    ?C0007
                                           ; SOURCE LINE # 217
01DD         ?C0037:
01DD 7B00        R     MOV     R3,#MBYTE ?SC_345
01DF 7A00        R     MOV     R2,#HIGH ?SC_345
01E1 7900        R     MOV     R1,#LOW ?SC_345
01E3         ?C0192:
01E3 12000000    R     LCALL   L?0225
01E7 74CA              MOV     A,#0CAH
01E9 F0                MOVX    @DPTR,A
01EA 804E              SJMP    ?C0007
                                           ; SOURCE LINE # 218
01EC         ?C0038:
01EC 7B00        R     MOV     R3,#MBYTE ?SC_358
01EE 7A00        R     MOV     R2,#HIGH ?SC_358
01F0 7900        R     MOV     R1,#LOW ?SC_358
01F2         ?C0193:
01F2 12000000    R     LCALL   L?0241
01F6 74FF              MOV     A,#0FFH
01F8 F0                MOVX    @DPTR,A
01F9 A3                INC     DPTR
01FA 74D7              MOV     A,#0D7H
01FC F0                MOVX    @DPTR,A
01FD 803B              SJMP    ?C0007
                                           ; SOURCE LINE # 219
01FF         ?C0039:
01FF 7B00        R     MOV     R3,#MBYTE ?SC_371
0201 7A00        R     MOV     R2,#HIGH ?SC_371
0203 7900        R     MOV     R1,#LOW ?SC_371
0205 12000000    R     LCALL   L?0252
0209 74FF              MOV     A,#0FFH
020B F0                MOVX    @DPTR,A
020C A3                INC     DPTR
020D 74DF              MOV     A,#0DFH
020F F0                MOVX    @DPTR,A
0210 8028              SJMP    ?C0007
                                           ; SOURCE LINE # 220
0212         ?C0040:
0212 7B00        R     MOV     R3,#MBYTE ?SC_384
0214 7A00        R     MOV     R2,#HIGH ?SC_384
0216 7900        R     MOV     R1,#LOW ?SC_384
0218         ?C0194:
C51 COMPILER V8.06   UART                                                                  03/10/2026 15:30:57 PAGE 54  

0218 12000000    R     LCALL   L?0252
021C 74FF              MOV     A,#0FFH
021E F0                MOVX    @DPTR,A
021F A3                INC     DPTR
0220 74E5              MOV     A,#0E5H
0222 F0                MOVX    @DPTR,A
0223 8015              SJMP    ?C0007
                                           ; SOURCE LINE # 222
0225         ?C0041:
0225 7B00        R     MOV     R3,#MBYTE ?SC_398
0227 7A00        R     MOV     R2,#HIGH ?SC_398
0229 7900        R     MOV     R1,#LOW ?SC_398
022B         ?C0195:
022B 12000000    E     LCALL   _printd
022F 90000000    R     MOV     DPTR,#xcap
0233 74FD              MOV     A,#0FDH
0235 F0                MOVX    @DPTR,A
0236 A3                INC     DPTR
0237 7475              MOV     A,#075H
0239 F0                MOVX    @DPTR,A
                                           ; SOURCE LINE # 223
023A         ?C0007:
                                           ; SOURCE LINE # 224
023A 12000000    R     LCALL   L?0268
023E 12000000    E     LCALL   _printd
                                           ; SOURCE LINE # 235
0242 90000000    R     MOV     DPTR,#xcap
0246 E0                MOVX    A,@DPTR
0247 FC                MOV     R4,A
0248 A3                INC     DPTR
0249 E0                MOVX    A,@DPTR
024A FD                MOV     R5,A
024B EC                MOV     A,R4
024C 90000000    R     MOV     DPTR,#sysClk
0250 F0                MOVX    @DPTR,A
                                           ; SOURCE LINE # 237
0251 F5CB              MOV     RLDH,A
                                           ; SOURCE LINE # 238
0253 ED                MOV     A,R5
0254 F0                MOVX    @DPTR,A
                                           ; SOURCE LINE # 240
0255 F5CA              MOV     RLDL,A
                                           ; SOURCE LINE # 242
0257 90000000    R     MOV     DPTR,#t
025B E0                MOVX    A,@DPTR
025C FF                MOV     R7,A
                                           ; SOURCE LINE # 243
025D         ?C0042:
025D 22                RET     
025E         L?0211:
025E 12000000    E     LCALL   _printd
0262 90000000    R     MOV     DPTR,#xcap
0266 74FF              MOV     A,#0FFH
0268 F0                MOVX    @DPTR,A
0269 A3                INC     DPTR
026A 22                RET     
026B         L?0212:
026B 12000000    E     LCALL   _printd
026F 90000000    R     MOV     DPTR,#xcap
0273 74FF              MOV     A,#0FFH
0275 F0                MOVX    @DPTR,A
0276 A3                INC     DPTR
C51 COMPILER V8.06   UART                                                                  03/10/2026 15:30:57 PAGE 55  

0277 22                RET     
0278         L?0217:
0278 12000000    E     LCALL   _printd
027C 90000000    R     MOV     DPTR,#xcap
0280 74FF              MOV     A,#0FFH
0282 F0                MOVX    @DPTR,A
0283 A3                INC     DPTR
0284 22                RET     
0285         L?0222:
0285 12000000    E     LCALL   _printd
0289 90000000    R     MOV     DPTR,#xcap
028D 74FF              MOV     A,#0FFH
028F F0                MOVX    @DPTR,A
0290 A3                INC     DPTR
0291 22                RET     
0292         L?0225:
0292 12000000    E     LCALL   _printd
0296 90000000    R     MOV     DPTR,#xcap
029A 74FF              MOV     A,#0FFH
029C F0                MOVX    @DPTR,A
029D A3                INC     DPTR
029E 22                RET     
029F         L?0230:
029F 12000000    E     LCALL   _printd
02A3 90000000    R     MOV     DPTR,#xcap
02A7 22                RET     
02A8         L?0241:
02A8 12000000    E     LCALL   _printd
02AC 90000000    R     MOV     DPTR,#xcap
02B0 22                RET     
02B1         L?0252:
02B1 12000000    E     LCALL   _printd
02B5 90000000    R     MOV     DPTR,#xcap
02B9 22                RET     
             ; FUNCTION _uart0_setBaudRate (END)

             ; FUNCTION _uart0_Init (BEGIN)
                                           ; SOURCE LINE # 252
0000 90000000    R     MOV     DPTR,#baudrate
0004 12000000    R     LCALL   L?0248
                                           ; SOURCE LINE # 253
                                           ; SOURCE LINE # 254
0008 E4                CLR     A
0009 A3                INC     DPTR
000A F0                MOVX    @DPTR,A
                                           ; SOURCE LINE # 256
000B 90000000    R     MOV     DPTR,#uart0_TxHead
000F F0                MOVX    @DPTR,A
0010 A3                INC     DPTR
0011 F0                MOVX    @DPTR,A
                                           ; SOURCE LINE # 257
0012 90000000    R     MOV     DPTR,#uart0_TxTail
0016 F0                MOVX    @DPTR,A
0017 A3                INC     DPTR
0018 F0                MOVX    @DPTR,A
                                           ; SOURCE LINE # 258
0019 90000000    R     MOV     DPTR,#uart0_TxCount
001D F0                MOVX    @DPTR,A
001E A3                INC     DPTR
001F F0                MOVX    @DPTR,A
                                           ; SOURCE LINE # 259
0020 90000000    R     MOV     DPTR,#uart0_TxFlag
C51 COMPILER V8.06   UART                                                                  03/10/2026 15:30:57 PAGE 56  

0024 F0                MOVX    @DPTR,A
                                           ; SOURCE LINE # 260
0025 90000000    R     MOV     DPTR,#uart0_RxHead
0029 F0                MOVX    @DPTR,A
002A A3                INC     DPTR
002B F0                MOVX    @DPTR,A
                                           ; SOURCE LINE # 261
002C 90000000    R     MOV     DPTR,#uart0_RxTail
                                           ; SOURCE LINE # 262
                                           ; SOURCE LINE # 263
0030 12000000    R     LCALL   L?0270
0034 FF                MOV     R7,A
0035 FD                MOV     R5,A
0036 7B00        R     MOV     R3,#MBYTE uart0_TxBuf
0038 7A00        R     MOV     R2,#HIGH uart0_TxBuf
003A 7900        R     MOV     R1,#LOW uart0_TxBuf
003C 12000000    E     LCALL   ?C?MEMSET
                                           ; SOURCE LINE # 264
0040 12000000    R     LCALL   L?0271
0044 12000000    R     LCALL   L?0255
                                           ; SOURCE LINE # 267
0048 438780            ORL     PCON,#080H
                                           ; SOURCE LINE # 268
004B C29F              CLR     SM00
                                           ; SOURCE LINE # 269
004D D29E              SETB    SM01
                                           ; SOURCE LINE # 270
004F D29C              SETB    REN0
                                           ; SOURCE LINE # 271
0051 758920            MOV     TMOD,#020H
                                           ; SOURCE LINE # 272
0054 90000000    R     MOV     DPTR,#baudrate
0058 E0                MOVX    A,@DPTR
0059 FF                MOV     R7,A
005A 12000000    R     LCALL   _uart0_setBaudRate
                                           ; SOURCE LINE # 273
005E 85CBCD            MOV     TH2,RLDH
                                           ; SOURCE LINE # 274
0061 85CACC            MOV     TL2,RLDL
                                           ; SOURCE LINE # 275
0064 D2AC              SETB    ES0
                                           ; SOURCE LINE # 276
0066 75C830            MOV     T2CON,#030H
                                           ; SOURCE LINE # 277
0069 D2CA              SETB    TR2
                                           ; SOURCE LINE # 278
006B 22                RET     
             ; FUNCTION _uart0_Init (END)

             ; FUNCTION _uart0_PutChar (BEGIN)
                                           ; SOURCE LINE # 288
;---- Variable 'c' assigned to Register 'R3' ----
0000 AB07              MOV     R3,AR7
                                           ; SOURCE LINE # 289
                                           ; SOURCE LINE # 290
;---- Variable 'count' assigned to Register 'R4/R5' ----
0002         ?C0046:
                                           ; SOURCE LINE # 292
                                           ; SOURCE LINE # 293
0002 C2AF              CLR     EA
                                           ; SOURCE LINE # 294
0004 90000000    R     MOV     DPTR,#uart0_TxCount
C51 COMPILER V8.06   UART                                                                  03/10/2026 15:30:57 PAGE 57  

0008 E0                MOVX    A,@DPTR
0009 FC                MOV     R4,A
000A A3                INC     DPTR
000B E0                MOVX    A,@DPTR
000C FD                MOV     R5,A
                                           ; SOURCE LINE # 295
000D D2AF              SETB    EA
                                           ; SOURCE LINE # 296
                                           ; SOURCE LINE # 297
000F 7003              JNZ     ?C0154
0011 EC                MOV     A,R4
0012 6401              XRL     A,#01H
0014         ?C0154:
0014 60EC              JZ      ?C0046
                                           ; SOURCE LINE # 298
0016 AF03              MOV     R7,AR3
0018 90000000    R     MOV     DPTR,#uart0_TxHead
001C 12000000    R     LCALL   L?0235
0020 12000000    R     LCALL   L?0253
                                           ; SOURCE LINE # 299
0024 C2AF              CLR     EA
                                           ; SOURCE LINE # 300
0026 90000000    R     MOV     DPTR,#uart0_TxCount+01H
002A E0                MOVX    A,@DPTR
002B 04                INC     A
002C F0                MOVX    @DPTR,A
002D 7007              JNZ     ?C0155
002F 90000000    R     MOV     DPTR,#uart0_TxCount
0033 E0                MOVX    A,@DPTR
0034 04                INC     A
0035 F0                MOVX    @DPTR,A
0036         ?C0155:
                                           ; SOURCE LINE # 301
0036 D2AF              SETB    EA
                                           ; SOURCE LINE # 302
0038 90000000    R     MOV     DPTR,#uart0_TxHead+01H
003C E0                MOVX    A,@DPTR
003D 04                INC     A
003E F0                MOVX    @DPTR,A
003F 7007              JNZ     ?C0156
0041 90000000    R     MOV     DPTR,#uart0_TxHead
0045 E0                MOVX    A,@DPTR
0046 04                INC     A
0047 F0                MOVX    @DPTR,A
0048         ?C0156:
                                           ; SOURCE LINE # 303
0048 90000000    R     MOV     DPTR,#uart0_TxHead
004C E4                CLR     A
004D F0                MOVX    @DPTR,A
                                           ; SOURCE LINE # 304
004E 90000000    R     MOV     DPTR,#uart0_TxFlag
0052 E0                MOVX    A,@DPTR
0053 700A              JNZ     ?C0047
                                           ; SOURCE LINE # 305
                                           ; SOURCE LINE # 306
                                           ; SOURCE LINE # 307
0055 12000000    R     LCALL   L?0233
0059 12000000    R     LCALL   L?0216
005D F599              MOV     SBUF0,A
                                           ; SOURCE LINE # 308
005F         ?C0047:
                                           ; SOURCE LINE # 309
C51 COMPILER V8.06   UART                                                                  03/10/2026 15:30:57 PAGE 58  

005F AF03              MOV     R7,AR3
0061 EF                MOV     A,R7
0062 33                RLC     A
0063 95E0              SUBB    A,ACC
0065 FE                MOV     R6,A
                                           ; SOURCE LINE # 310
0066         ?C0048:
0066 22                RET     
             ; FUNCTION _uart0_PutChar (END)

             ; FUNCTION uart0_GetKey (BEGIN)
                                           ; SOURCE LINE # 320
                                           ; SOURCE LINE # 321
                                           ; SOURCE LINE # 324
0000 90000000    R     MOV     DPTR,#uart0_RxCount
0004 E0                MOVX    A,@DPTR
0005 7002              JNZ     ?C0157
0007 A3                INC     DPTR
0008 E0                MOVX    A,@DPTR
0009         ?C0157:
0009 7004              JNZ     ?C0049
000B 7E01              MOV     R6,#01H
000D FF                MOV     R7,A
000E 22                RET     
000F         ?C0049:
                                           ; SOURCE LINE # 326
                                           ; SOURCE LINE # 327
                                           ; SOURCE LINE # 328
                                           ; SOURCE LINE # 329
000F 12000000    R     LCALL   L?0213
;---- Variable 'c' assigned to Register 'R5' ----
0013 FD                MOV     R5,A
                                           ; SOURCE LINE # 330
0014 90000000    R     MOV     DPTR,#uart0_RxTail+01H
0018 E0                MOVX    A,@DPTR
0019 04                INC     A
001A F0                MOVX    @DPTR,A
001B 7007              JNZ     ?C0158
001D 90000000    R     MOV     DPTR,#uart0_RxTail
0021 E0                MOVX    A,@DPTR
0022 04                INC     A
0023 F0                MOVX    @DPTR,A
0024         ?C0158:
                                           ; SOURCE LINE # 331
0024 90000000    R     MOV     DPTR,#uart0_RxTail
0028 E4                CLR     A
0029 F0                MOVX    @DPTR,A
                                           ; SOURCE LINE # 332
002A AF05              MOV     R7,AR5
002C FE                MOV     R6,A
                                           ; SOURCE LINE # 333
002D         ?C0050:
002D 22                RET     
             ; FUNCTION uart0_GetKey (END)

             ; FUNCTION uart0_TxChk (BEGIN)
                                           ; SOURCE LINE # 344
                                           ; SOURCE LINE # 345
                                           ; SOURCE LINE # 346
0000 90000000    R     MOV     DPTR,#uart0_TxFlag
0004 E0                MOVX    A,@DPTR
0005 FF                MOV     R7,A
C51 COMPILER V8.06   UART                                                                  03/10/2026 15:30:57 PAGE 59  

                                           ; SOURCE LINE # 347
0006         ?C0051:
0006 22                RET     
             ; FUNCTION uart0_TxChk (END)

             ; FUNCTION _uart0_PutStr (BEGIN)
                                           ; SOURCE LINE # 357
0000 90000000    R     MOV     DPTR,#pData
0004 12000000    R     LCALL   L?0231
                                           ; SOURCE LINE # 358
                                           ; SOURCE LINE # 359
;---- Variable 'count' assigned to Register 'R6/R7' ----
0008         ?C0054:
                                           ; SOURCE LINE # 365
                                           ; SOURCE LINE # 366
0008 C2AF              CLR     EA
                                           ; SOURCE LINE # 367
000A 90000000    R     MOV     DPTR,#uart0_TxCount
000E E0                MOVX    A,@DPTR
000F FE                MOV     R6,A
0010 A3                INC     DPTR
0011 E0                MOVX    A,@DPTR
0012 FF                MOV     R7,A
                                           ; SOURCE LINE # 368
0013 D2AF              SETB    EA
                                           ; SOURCE LINE # 369
                                           ; SOURCE LINE # 370
0015 90000000    R     MOV     DPTR,#cnt
0019 12000000    R     LCALL   L?0264
001D 7003              JNZ     ?C0159
001F EA                MOV     A,R2
0020 6401              XRL     A,#01H
0022         ?C0159:
0022 60E4              JZ      ?C0054
                                           ; SOURCE LINE # 371
0024 90000000    R     MOV     DPTR,#uart0_TxHead+01H
0028 E0                MOVX    A,@DPTR
0029 2D                ADD     A,R5
002A FF                MOV     R7,A
002B 90000000    R     MOV     DPTR,#uart0_TxHead
002F E0                MOVX    A,@DPTR
0030 3C                ADDC    A,R4
0031 12000000    R     LCALL   L?0221
0035 4042              JC      ?C0055
                                           ; SOURCE LINE # 372
                                           ; SOURCE LINE # 373
0037 12000000    R     LCALL   L?0236
003B 90000000    R     MOV     DPTR,#offset+01H
003F F0                MOVX    @DPTR,A
0040 90000000    R     MOV     DPTR,#offset
                                           ; SOURCE LINE # 374
0044 12000000    R     LCALL   L?0223
0048 C005              PUSH    AR5
004A 7400        R     MOV     A,#LOW uart0_TxBuf
004C 2F                ADD     A,R7
004D 12000000    R     LCALL   L?0256
0051 12000000    R     LCALL   L?0210
0055 F9                MOV     R1,A
0056 D007              POP     AR7
0058 12000000    E     LCALL   ?C?MEMMOVE
                                           ; SOURCE LINE # 375
005C 90000000    R     MOV     DPTR,#cnt
C51 COMPILER V8.06   UART                                                                  03/10/2026 15:30:57 PAGE 60  

0060 12000000    R     LCALL   L?0247
0064 90000000    R     MOV     DPTR,#pData
0068 12000000    R     LCALL   L?0209
006C 2D                ADD     A,R5
006D F9                MOV     R1,A
006E EA                MOV     A,R2
006F 3C                ADDC    A,R4
0070 FA                MOV     R2,A
0071 7800        R     MOV     R0,#LOW uart0_TxBuf
0073 7C00        R     MOV     R4,#HIGH uart0_TxBuf
0075 7D00        R     MOV     R5,#MBYTE uart0_TxBuf
                                           ; SOURCE LINE # 376
0077 8019              SJMP    ?C0196
0079         ?C0055:
                                           ; SOURCE LINE # 378
0079 90000000    R     MOV     DPTR,#cnt
007D E0                MOVX    A,@DPTR
007E FF                MOV     R7,A
007F 7E00              MOV     R6,#00H
0081 90000000    R     MOV     DPTR,#uart0_TxHead
0085 A3                INC     DPTR
0086 E0                MOVX    A,@DPTR
0087 2400        R     ADD     A,#LOW uart0_TxBuf
0089 12000000    R     LCALL   L?0256
008D 12000000    R     LCALL   L?0210
0091 F9                MOV     R1,A
0092         ?C0196:
0092 12000000    E     LCALL   ?C?MEMMOVE
0096         ?C0056:
                                           ; SOURCE LINE # 380
0096 C2AF              CLR     EA
                                           ; SOURCE LINE # 381
0098 90000000    R     MOV     DPTR,#cnt
009C E0                MOVX    A,@DPTR
009D FF                MOV     R7,A
009E 7E00              MOV     R6,#00H
00A0 90000000    R     MOV     DPTR,#uart0_TxCount+01H
00A4 E0                MOVX    A,@DPTR
00A5 2F                ADD     A,R7
00A6 F0                MOVX    @DPTR,A
00A7 90000000    R     MOV     DPTR,#uart0_TxCount
00AB E0                MOVX    A,@DPTR
00AC 3E                ADDC    A,R6
00AD F0                MOVX    @DPTR,A
                                           ; SOURCE LINE # 382
00AE D2AF              SETB    EA
                                           ; SOURCE LINE # 383
00B0 90000000    R     MOV     DPTR,#uart0_TxHead+01H
00B4 E0                MOVX    A,@DPTR
00B5 2F                ADD     A,R7
00B6 F0                MOVX    @DPTR,A
00B7 90000000    R     MOV     DPTR,#uart0_TxHead
00BB E0                MOVX    A,@DPTR
00BC 3E                ADDC    A,R6
00BD F0                MOVX    @DPTR,A
                                           ; SOURCE LINE # 384
00BE E4                CLR     A
00BF F0                MOVX    @DPTR,A
                                           ; SOURCE LINE # 385
00C0 90000000    R     MOV     DPTR,#uart0_TxFlag
00C4 E0                MOVX    A,@DPTR
00C5 700A              JNZ     ?C0058
C51 COMPILER V8.06   UART                                                                  03/10/2026 15:30:57 PAGE 61  

                                           ; SOURCE LINE # 386
                                           ; SOURCE LINE # 387
                                           ; SOURCE LINE # 388
00C7 12000000    R     LCALL   L?0233
00CB 12000000    R     LCALL   L?0216
00CF F599              MOV     SBUF0,A
                                           ; SOURCE LINE # 390
                                           ; SOURCE LINE # 391
00D1         ?C0058:
00D1 22                RET     
             ; FUNCTION _uart0_PutStr (END)

             ; FUNCTION _uart0_GetBuf (BEGIN)
                                           ; SOURCE LINE # 401
0000 90000000    R     MOV     DPTR,#pData
                                           ; SOURCE LINE # 402
                                           ; SOURCE LINE # 405
0004 12000000    R     LCALL   L?0218
0008 404F              JC      ?C0059
                                           ; SOURCE LINE # 406
                                           ; SOURCE LINE # 407
000A 12000000    R     LCALL   L?0236
000E 90000000    R     MOV     DPTR,#offset+01H
0012 F0                MOVX    @DPTR,A
0013 90000000    R     MOV     DPTR,#offset
                                           ; SOURCE LINE # 408
0017 12000000    R     LCALL   L?0223
001B C005              PUSH    AR5
001D 7400        R     MOV     A,#LOW uart0_RxBuf
001F 2F                ADD     A,R7
0020 12000000    R     LCALL   L?0243
0024 C003              PUSH    AR3
0026 C002              PUSH    AR2
0028 90000000    R     MOV     DPTR,#pData
002C 12000000    R     LCALL   L?0210
0030 F8                MOV     R0,A
0031 AC02              MOV     R4,AR2
0033 AD03              MOV     R5,AR3
0035 D002              POP     AR2
0037 D003              POP     AR3
0039 D007              POP     AR7
003B 12000000    E     LCALL   ?C?MEMMOVE
                                           ; SOURCE LINE # 409
003F 90000000    R     MOV     DPTR,#cnt
0043 12000000    R     LCALL   L?0247
0047 90000000    R     MOV     DPTR,#pData
004B 12000000    R     LCALL   L?0209
004F 12000000    R     LCALL   L?0273
0053 12000000    R     LCALL   L?0271
                                           ; SOURCE LINE # 410
0057 8021              SJMP    ?C0197
0059         ?C0059:
                                           ; SOURCE LINE # 412
0059 90000000    R     MOV     DPTR,#cnt
005D E0                MOVX    A,@DPTR
005E FF                MOV     R7,A
005F 7E00              MOV     R6,#00H
0061 12000000    R     LCALL   L?0242
0065 C003              PUSH    AR3
0067 C002              PUSH    AR2
0069 90000000    R     MOV     DPTR,#pData
006D 12000000    R     LCALL   L?0210
C51 COMPILER V8.06   UART                                                                  03/10/2026 15:30:57 PAGE 62  

0071 F8                MOV     R0,A
0072 AC02              MOV     R4,AR2
0074 AD03              MOV     R5,AR3
0076 D002              POP     AR2
0078 D003              POP     AR3
007A         ?C0197:
007A 12000000    E     LCALL   ?C?MEMMOVE
                                           ; SOURCE LINE # 413
007E         ?C0061:
007E 22                RET     
             ; FUNCTION _uart0_GetBuf (END)

             ; FUNCTION UA0_GetCount (BEGIN)
                                           ; SOURCE LINE # 415
                                           ; SOURCE LINE # 416
                                           ; SOURCE LINE # 417
0000 12000000    R     LCALL   L?0274
                                           ; SOURCE LINE # 418
0004         ?C0062:
0004 22                RET     
             ; FUNCTION UA0_GetCount (END)

             ; FUNCTION _uart0_RxBufUpdate (BEGIN)
                                           ; SOURCE LINE # 427
;---- Variable 'cnt' assigned to Register 'R3' ----
                                           ; SOURCE LINE # 428
                                           ; SOURCE LINE # 429
0000 EF                MOV     A,R7
0001 FD                MOV     R5,A
0002 7C00              MOV     R4,#00H
0004 12000000    R     LCALL   L?0275
0008 F0                MOVX    @DPTR,A
0009 90000000    R     MOV     DPTR,#uart0_RxTail
000D E0                MOVX    A,@DPTR
000E 3C                ADDC    A,R4
000F F0                MOVX    @DPTR,A
                                           ; SOURCE LINE # 430
0010 E4                CLR     A
0011 F0                MOVX    @DPTR,A
                                           ; SOURCE LINE # 431
0012 C2AF              CLR     EA
                                           ; SOURCE LINE # 432
0014 C3                CLR     C
0015 90000000    R     MOV     DPTR,#uart0_RxCount+01H
0019 E0                MOVX    A,@DPTR
001A 9D                SUBB    A,R5
001B F0                MOVX    @DPTR,A
001C 90000000    R     MOV     DPTR,#uart0_RxCount
0020 E0                MOVX    A,@DPTR
0021 9C                SUBB    A,R4
0022 F0                MOVX    @DPTR,A
                                           ; SOURCE LINE # 433
0023 D2AF              SETB    EA
                                           ; SOURCE LINE # 434
0025 22                RET     
             ; FUNCTION _uart0_RxBufUpdate (END)

             ; FUNCTION _uart0_RxPtrSet (BEGIN)
                                           ; SOURCE LINE # 443
;---- Variable 'c' assigned to Register 'R7' ----
                                           ; SOURCE LINE # 444
                                           ; SOURCE LINE # 448
C51 COMPILER V8.06   UART                                                                  03/10/2026 15:30:57 PAGE 63  

0000 90000000    R     MOV     DPTR,#uart0_RxTail
0004 E0                MOVX    A,@DPTR
0005 FC                MOV     R4,A
0006 A3                INC     DPTR
0007 E0                MOVX    A,@DPTR
0008 FD                MOV     R5,A
0009 C3                CLR     C
000A E4                CLR     A
000B 9D                SUBB    A,R5
000C 90000000    R     MOV     DPTR,#length+01H
0010 F0                MOVX    @DPTR,A
0011 90000000    R     MOV     DPTR,#length
                                           ; SOURCE LINE # 449
0015 12000000    R     LCALL   L?0263
0019 C003              PUSH    AR3
001B 7400        R     MOV     A,#LOW uart0_RxBuf
001D 2D                ADD     A,R5
001E 12000000    R     LCALL   L?0243
0022 AD07              MOV     R5,AR7
0024 D007              POP     AR7
0026 12000000    E     LCALL   ?C?MEMCHR
002A 90000000    R     MOV     DPTR,#pData1
002E EB                MOV     A,R3
002F F0                MOVX    @DPTR,A
0030 A3                INC     DPTR
0031 EA                MOV     A,R2
0032 F0                MOVX    @DPTR,A
0033 A3                INC     DPTR
0034 E9                MOV     A,R1
0035 F0                MOVX    @DPTR,A
                                           ; SOURCE LINE # 450
0036 7B00        R     MOV     R3,#MBYTE uart0_RxBuf
0038 7A00        R     MOV     R2,#HIGH uart0_RxBuf+0100H
003A 7900        R     MOV     R1,#LOW uart0_RxBuf+0100H
;---- Variable 'pData2' assigned to Register 'R1/R2/R3' ----
                                           ; SOURCE LINE # 451
003C 12000000    E     LCALL   ?C?CLDPTR
0040 FF                MOV     R7,A
0041 90000000    R     MOV     DPTR,#pData1
0045 12000000    R     LCALL   L?0210
0049 12000000    R     LCALL   L?0262
004D 90000000    R     MOV     DPTR,#length
0051 F0                MOVX    @DPTR,A
0052 A3                INC     DPTR
0053 EF                MOV     A,R7
0054 F0                MOVX    @DPTR,A
                                           ; SOURCE LINE # 452
0055 90000000    R     MOV     DPTR,#uart0_RxTail
0059 EE                MOV     A,R6
005A F0                MOVX    @DPTR,A
005B A3                INC     DPTR
005C EF                MOV     A,R7
005D F0                MOVX    @DPTR,A
                                           ; SOURCE LINE # 453
005E 12000000    R     LCALL   L?0215
0062 FF                MOV     R7,A
                                           ; SOURCE LINE # 454
0063         ?C0064:
0063 22                RET     
             ; FUNCTION _uart0_RxPtrSet (END)

             ; FUNCTION _uart0_RxBufSet (BEGIN)
C51 COMPILER V8.06   UART                                                                  03/10/2026 15:30:57 PAGE 64  

                                           ; SOURCE LINE # 463
0000 90000000    R     MOV     DPTR,#c
0004 12000000    R     LCALL   L?0248
                                           ; SOURCE LINE # 464
                                           ; SOURCE LINE # 467
0008 12000000    R     LCALL   L?0275
000C FF                MOV     R7,A
000D 90000000    R     MOV     DPTR,#uart0_RxTail
0011 E0                MOVX    A,@DPTR
0012 3C                ADDC    A,R4
0013 12000000    R     LCALL   L?0221
0017 4047              JC      ?C0065
                                           ; SOURCE LINE # 468
                                           ; SOURCE LINE # 469
0019 12000000    R     LCALL   L?0237
001D 90000000    R     MOV     DPTR,#offset+01H
0021 F0                MOVX    @DPTR,A
0022 7401              MOV     A,#01H
0024 9E                SUBB    A,R6
0025 90000000    R     MOV     DPTR,#offset
                                           ; SOURCE LINE # 470
0029 12000000    R     LCALL   L?0224
002D C005              PUSH    AR5
002F 12000000    R     LCALL   L?0276
0033 7400        R     MOV     A,#LOW uart0_RxBuf
0035 2F                ADD     A,R7
0036 12000000    R     LCALL   L?0243
003A D007              POP     AR7
003C 12000000    E     LCALL   ?C?MEMSET
                                           ; SOURCE LINE # 471
0040 90000000    R     MOV     DPTR,#offset
0044 12000000    R     LCALL   L?0278
0048 90000000    R     MOV     DPTR,#len+01H
004C E0                MOVX    A,@DPTR
004D 9F                SUBB    A,R7
004E FF                MOV     R7,A
004F 90000000    R     MOV     DPTR,#len
0053 E0                MOVX    A,@DPTR
0054 9E                SUBB    A,R6
0055 FE                MOV     R6,A
0056 12000000    R     LCALL   L?0276
005A 12000000    R     LCALL   L?0272
                                           ; SOURCE LINE # 472
005E 8011              SJMP    ?C0198
0060         ?C0065:
                                           ; SOURCE LINE # 474
0060 90000000    R     MOV     DPTR,#len
0064 E0                MOVX    A,@DPTR
0065 FE                MOV     R6,A
0066 A3                INC     DPTR
0067 E0                MOVX    A,@DPTR
0068 FF                MOV     R7,A
0069 12000000    R     LCALL   L?0277
006D 12000000    R     LCALL   L?0242
0071         ?C0198:
0071 12000000    E     LCALL   ?C?MEMSET
                                           ; SOURCE LINE # 475
0075         ?C0067:
0075 22                RET     
             ; FUNCTION _uart0_RxBufSet (END)

             ; FUNCTION _uart0_RxBufCmp (BEGIN)
C51 COMPILER V8.06   UART                                                                  03/10/2026 15:30:57 PAGE 65  

                                           ; SOURCE LINE # 484
0000 90000000    R     MOV     DPTR,#pData
                                           ; SOURCE LINE # 485
                                           ; SOURCE LINE # 489
0004 12000000    R     LCALL   L?0218
0008 4055              JC      ?C0068
                                           ; SOURCE LINE # 490
                                           ; SOURCE LINE # 491
000A 12000000    R     LCALL   L?0237
000E 90000000    R     MOV     DPTR,#offset+01H
0012 F0                MOVX    @DPTR,A
0013 7401              MOV     A,#01H
0015 9E                SUBB    A,R6
0016 90000000    R     MOV     DPTR,#offset
                                           ; SOURCE LINE # 492
001A 12000000    R     LCALL   L?0224
001E C005              PUSH    AR5
0020 7400        R     MOV     A,#LOW uart0_RxBuf
0022 2F                ADD     A,R7
0023 12000000    R     LCALL   L?0257
0027 12000000    R     LCALL   L?0210
002B F9                MOV     R1,A
002C D007              POP     AR7
002E 12000000    R     LCALL   L?0265
                                           ; SOURCE LINE # 493
0032 E0                MOVX    A,@DPTR
0033 FF                MOV     R7,A
0034 C007              PUSH    AR7
0036 90000000    R     MOV     DPTR,#len
003A 12000000    R     LCALL   L?0228
003E 90000000    R     MOV     DPTR,#pData
0042 12000000    R     LCALL   L?0210
0046 2D                ADD     A,R5
0047 F9                MOV     R1,A
0048 EA                MOV     A,R2
0049 3C                ADDC    A,R4
004A FA                MOV     R2,A
004B 7800        R     MOV     R0,#LOW uart0_RxBuf
004D 7C00        R     MOV     R4,#HIGH uart0_RxBuf
004F 7D00        R     MOV     R5,#MBYTE uart0_RxBuf
0051 12000000    E     LCALL   ?C?MEMCMP
0055 D0E0              POP     ACC
0057 4F                ORL     A,R7
0058 90000000    R     MOV     DPTR,#result
005C F0                MOVX    @DPTR,A
                                           ; SOURCE LINE # 494
005D 801D              SJMP    ?C0069
005F         ?C0068:
                                           ; SOURCE LINE # 496
005F 90000000    R     MOV     DPTR,#len
0063 E0                MOVX    A,@DPTR
0064 FF                MOV     R7,A
0065 7E00              MOV     R6,#00H
0067 90000000    R     MOV     DPTR,#uart0_RxTail
006B A3                INC     DPTR
006C E0                MOVX    A,@DPTR
006D 2400        R     ADD     A,#LOW uart0_RxBuf
006F 12000000    R     LCALL   L?0257
0073 12000000    R     LCALL   L?0210
0077 F9                MOV     R1,A
0078 12000000    R     LCALL   L?0265
007C         ?C0069:
C51 COMPILER V8.06   UART                                                                  03/10/2026 15:30:57 PAGE 66  

                                           ; SOURCE LINE # 498
007C 90000000    R     MOV     DPTR,#result
0080 E0                MOVX    A,@DPTR
0081 FF                MOV     R7,A
                                           ; SOURCE LINE # 499
0082         ?C0070:
0082 22                RET     
             ; FUNCTION _uart0_RxBufCmp (END)

             ; FUNCTION uart0_GetByteCount (BEGIN)
                                           ; SOURCE LINE # 508
                                           ; SOURCE LINE # 509
                                           ; SOURCE LINE # 510
0000 12000000    R     LCALL   L?0274
                                           ; SOURCE LINE # 511
0004         ?C0071:
0004 22                RET     
             ; FUNCTION uart0_GetByteCount (END)

             ; FUNCTION uart0_DisplayRxPointers (BEGIN)
                                           ; SOURCE LINE # 520
                                           ; SOURCE LINE # 521
                                           ; SOURCE LINE # 522
0000 7B00        R     MOV     R3,#MBYTE ?SC_414
0002 7A00        R     MOV     R2,#HIGH ?SC_414
0004 7900        R     MOV     R1,#LOW ?SC_414
0006 90000000    R     MOV     DPTR,#uart0_RxHead
000A 12000000    R     LCALL   L?0250
000E 90000000    R     MOV     DPTR,#uart0_RxTail
0012 12000000    R     LCALL   L?0258
0016 90000000    R     MOV     DPTR,#uart0_RxCount
001A 12000000    R     LCALL   L?0259
001E 02000000    E     LJMP    _printd
             ; FUNCTION uart0_DisplayRxPointers (END)

             ; FUNCTION uart0_ShowRxBuffer (BEGIN)
                                           ; SOURCE LINE # 532
                                           ; SOURCE LINE # 533
                                           ; SOURCE LINE # 536
0000 E4                CLR     A
0001 90000000    R     MOV     DPTR,#i
0005 F0                MOVX    @DPTR,A
0006 A3                INC     DPTR
0007 F0                MOVX    @DPTR,A
0008         ?C0073:
0008 90000000    R     MOV     DPTR,#i
000C 12000000    R     LCALL   L?0278
0010 EE                MOV     A,R6
0011 9401              SUBB    A,#01H
0013 503D              JNC     ?C0074
                                           ; SOURCE LINE # 537
                                           ; SOURCE LINE # 538
0015 EF                MOV     A,R7
0016 540F              ANL     A,#0FH
0018 700F              JNZ     ?C0076
001A 7B00        R     MOV     R3,#MBYTE ?SC_454
001C 7A00        R     MOV     R2,#HIGH ?SC_454
001E 7900        R     MOV     R1,#LOW ?SC_454
0020 EE                MOV     A,R6
0021 12000000    R     LCALL   L?0251
0025 12000000    E     LCALL   _printd
0029         ?C0076:
C51 COMPILER V8.06   UART                                                                  03/10/2026 15:30:57 PAGE 67  

                                           ; SOURCE LINE # 539
0029 7B00        R     MOV     R3,#MBYTE ?SC_464
002B 7A00        R     MOV     R2,#HIGH ?SC_464
002D 7900        R     MOV     R1,#LOW ?SC_464
002F 90000000    R     MOV     DPTR,#i
0033 12000000    R     LCALL   L?0214
0037 90000000    E     MOV     DPTR,#?_printd?BYTE+03H
003B F0                MOVX    @DPTR,A
003C 12000000    E     LCALL   _printd
                                           ; SOURCE LINE # 540
0040 90000000    R     MOV     DPTR,#i+01H
0044 E0                MOVX    A,@DPTR
0045 04                INC     A
0046 F0                MOVX    @DPTR,A
0047 70BF              JNZ     ?C0073
0049 90000000    R     MOV     DPTR,#i
004D E0                MOVX    A,@DPTR
004E 04                INC     A
004F F0                MOVX    @DPTR,A
0050         ?C0160:
0050 80B6              SJMP    ?C0073
0052         ?C0074:
                                           ; SOURCE LINE # 541
0052 12000000    R     LCALL   L?0268
0056 02000000    E     LJMP    _printd
             ; FUNCTION uart0_ShowRxBuffer (END)

             ; FUNCTION uart0_NoBlockGetkey (BEGIN)
                                           ; SOURCE LINE # 553
                                           ; SOURCE LINE # 554
                                           ; SOURCE LINE # 555
;---- Variable 'c' assigned to Register 'R5' ----
                                           ; SOURCE LINE # 557
0000 90000000    R     MOV     DPTR,#uart0_RxCount
0004 E0                MOVX    A,@DPTR
0005 7002              JNZ     ?C0161
0007 A3                INC     DPTR
0008 E0                MOVX    A,@DPTR
0009         ?C0161:
0009 601E              JZ      ?C0078
                                           ; SOURCE LINE # 558
                                           ; SOURCE LINE # 559
                                           ; SOURCE LINE # 560
                                           ; SOURCE LINE # 561
                                           ; SOURCE LINE # 562
000B 12000000    R     LCALL   L?0213
000F FD                MOV     R5,A
                                           ; SOURCE LINE # 563
0010 90000000    R     MOV     DPTR,#uart0_RxTail+01H
0014 E0                MOVX    A,@DPTR
0015 04                INC     A
0016 F0                MOVX    @DPTR,A
0017 7007              JNZ     ?C0162
0019 90000000    R     MOV     DPTR,#uart0_RxTail
001D E0                MOVX    A,@DPTR
001E 04                INC     A
001F F0                MOVX    @DPTR,A
0020         ?C0162:
                                           ; SOURCE LINE # 564
0020 90000000    R     MOV     DPTR,#uart0_RxTail
0024 E4                CLR     A
0025 F0                MOVX    @DPTR,A
C51 COMPILER V8.06   UART                                                                  03/10/2026 15:30:57 PAGE 68  

                                           ; SOURCE LINE # 565
0026 AF05              MOV     R7,AR5
0028 22                RET     
                                           ; SOURCE LINE # 566
0029         ?C0078:
                                           ; SOURCE LINE # 567
0029 7F00              MOV     R7,#00H
                                           ; SOURCE LINE # 568
002B         ?C0079:
002B 22                RET     
             ; FUNCTION uart0_NoBlockGetkey (END)

             ; FUNCTION uart1_ISR (BEGIN)
0000 C0E0              PUSH    ACC
0002 C093              PUSH    DPX
0004 C083              PUSH    DPH
0006 C082              PUSH    DPL
0008 C0D0              PUSH    PSW
000A 75D000            MOV     PSW,#00H
000D C007              PUSH    AR7
                                           ; SOURCE LINE # 580
                                           ; SOURCE LINE # 583
;---- Variable 'tmp' assigned to Register 'R7' ----
                                           ; SOURCE LINE # 585
000F 30C04C            JNB     RI1,?C0080
                                           ; SOURCE LINE # 586
                                           ; SOURCE LINE # 587
0012 C2AF              CLR     EA
                                           ; SOURCE LINE # 588
0014 90000000    R     MOV     DPTR,#uart1_RxCount
0018 E0                MOVX    A,@DPTR
0019 6401              XRL     A,#01H
001B 7002              JNZ     ?C0163
001D A3                INC     DPTR
001E E0                MOVX    A,@DPTR
001F         ?C0163:
001F 6039              JZ      ?C0081
                                           ; SOURCE LINE # 589
                                           ; SOURCE LINE # 590
0021 AFC1              MOV     R7,SBUF1
                                           ; SOURCE LINE # 607
                                           ; SOURCE LINE # 608
0023 90000000    R     MOV     DPTR,#uart1_RxHead
0027 A3                INC     DPTR
0028 E0                MOVX    A,@DPTR
0029 2400        R     ADD     A,#LOW uart1_RxBuf
002B F582              MOV     DPL,A
002D E4                CLR     A
002E 3400        R     ADDC    A,#HIGH uart1_RxBuf
0030 12000000    R     LCALL   L?0254
                                           ; SOURCE LINE # 609
0034 90000000    R     MOV     DPTR,#uart1_RxCount+01H
0038 E0                MOVX    A,@DPTR
0039 04                INC     A
003A F0                MOVX    @DPTR,A
003B 7007              JNZ     ?C0164
003D 90000000    R     MOV     DPTR,#uart1_RxCount
0041 E0                MOVX    A,@DPTR
0042 04                INC     A
0043 F0                MOVX    @DPTR,A
0044         ?C0164:
                                           ; SOURCE LINE # 610
C51 COMPILER V8.06   UART                                                                  03/10/2026 15:30:57 PAGE 69  

0044 90000000    R     MOV     DPTR,#uart1_RxHead+01H
0048 E0                MOVX    A,@DPTR
0049 04                INC     A
004A F0                MOVX    @DPTR,A
004B 7007              JNZ     ?C0165
004D 90000000    R     MOV     DPTR,#uart1_RxHead
0051 E0                MOVX    A,@DPTR
0052 04                INC     A
0053 F0                MOVX    @DPTR,A
0054         ?C0165:
                                           ; SOURCE LINE # 611
0054 90000000    R     MOV     DPTR,#uart1_RxHead
0058 E4                CLR     A
0059 F0                MOVX    @DPTR,A
                                           ; SOURCE LINE # 612
                                           ; SOURCE LINE # 613
005A         ?C0081:
                                           ; SOURCE LINE # 614
005A C2C0              CLR     RI1
                                           ; SOURCE LINE # 615
005C D2AF              SETB    EA
                                           ; SOURCE LINE # 616
005E         ?C0080:
                                           ; SOURCE LINE # 618
005E 30C147            JNB     TI1,?C0085
                                           ; SOURCE LINE # 619
                                           ; SOURCE LINE # 620
0061 C2AF              CLR     EA
                                           ; SOURCE LINE # 621
0063 90000000    R     MOV     DPTR,#uart1_TxTail+01H
0067 E0                MOVX    A,@DPTR
0068 04                INC     A
0069 F0                MOVX    @DPTR,A
006A 7007              JNZ     ?C0166
006C 90000000    R     MOV     DPTR,#uart1_TxTail
0070 E0                MOVX    A,@DPTR
0071 04                INC     A
0072 F0                MOVX    @DPTR,A
0073         ?C0166:
                                           ; SOURCE LINE # 622
0073 90000000    R     MOV     DPTR,#uart1_TxTail
0077 E4                CLR     A
0078 F0                MOVX    @DPTR,A
                                           ; SOURCE LINE # 623
0079 90000000    R     MOV     DPTR,#uart1_TxCount+01H
007D E0                MOVX    A,@DPTR
007E 24FF              ADD     A,#0FFH
0080 F0                MOVX    @DPTR,A
0081 90000000    R     MOV     DPTR,#uart1_TxCount
                                           ; SOURCE LINE # 624
0085 12000000    R     LCALL   L?0267
0089 90000000    R     MOV     DPTR,#uart1_TxCount
008D E0                MOVX    A,@DPTR
008E 9400              SUBB    A,#00H
0090 400C              JC      ?C0083
                                           ; SOURCE LINE # 625
                                           ; SOURCE LINE # 626
0092 12000000    R     LCALL   L?0239
0096 12000000    R     LCALL   L?0216
009A F5C1              MOV     SBUF1,A
                                           ; SOURCE LINE # 635
009C 8006              SJMP    ?C0084
C51 COMPILER V8.06   UART                                                                  03/10/2026 15:30:57 PAGE 70  

009E         ?C0083:
                                           ; SOURCE LINE # 637
009E 90000000    R     MOV     DPTR,#uart1_TxFlag
00A2 E4                CLR     A
00A3 F0                MOVX    @DPTR,A
00A4         ?C0084:
                                           ; SOURCE LINE # 638
00A4 C2C1              CLR     TI1
                                           ; SOURCE LINE # 639
00A6 D2AF              SETB    EA
                                           ; SOURCE LINE # 640
                                           ; SOURCE LINE # 641
00A8         ?C0085:
00A8 D007              POP     AR7
00AA D0D0              POP     PSW
00AC D082              POP     DPL
00AE D083              POP     DPH
00B0 D093              POP     DPX
00B2 D0E0              POP     ACC
00B4 32                RETI    
             ; FUNCTION uart1_ISR (END)

             ; FUNCTION _uart1_Init (BEGIN)
                                           ; SOURCE LINE # 650
0000 90000000    R     MOV     DPTR,#baudrate
0004 12000000    R     LCALL   L?0249
                                           ; SOURCE LINE # 651
                                           ; SOURCE LINE # 652
;---- Variable 'sysClk' assigned to Register 'R7' ----
0008 E4                CLR     A
0009 FF                MOV     R7,A
                                           ; SOURCE LINE # 654
000A 90000000    R     MOV     DPTR,#uart1_TxHead
000E F0                MOVX    @DPTR,A
000F A3                INC     DPTR
0010 F0                MOVX    @DPTR,A
0011 90000000    R     MOV     DPTR,#uart1_TxTail
0015 F0                MOVX    @DPTR,A
0016 A3                INC     DPTR
0017 F0                MOVX    @DPTR,A
0018 90000000    R     MOV     DPTR,#uart1_TxCount
001C F0                MOVX    @DPTR,A
001D A3                INC     DPTR
001E F0                MOVX    @DPTR,A
001F 90000000    R     MOV     DPTR,#uart1_TxFlag
0023 F0                MOVX    @DPTR,A
                                           ; SOURCE LINE # 655
0024 90000000    R     MOV     DPTR,#uart1_RxHead
0028 F0                MOVX    @DPTR,A
0029 A3                INC     DPTR
002A F0                MOVX    @DPTR,A
002B 90000000    R     MOV     DPTR,#uart1_RxTail
                                           ; SOURCE LINE # 656
002F 12000000    R     LCALL   L?0270
0033 FD                MOV     R5,A
0034 7B00        R     MOV     R3,#MBYTE uart1_TxBuf
0036 7A00        R     MOV     R2,#HIGH uart1_TxBuf
0038 7900        R     MOV     R1,#LOW uart1_TxBuf
003A 12000000    E     LCALL   ?C?MEMSET
                                           ; SOURCE LINE # 657
003E 12000000    R     LCALL   L?0280
0042 12000000    R     LCALL   L?0255
C51 COMPILER V8.06   UART                                                                  03/10/2026 15:30:57 PAGE 71  

                                           ; SOURCE LINE # 659
                                           ; SOURCE LINE # 662
0046 858787            MOV     PCON,PCON
                                           ; SOURCE LINE # 663
0049 C2C7              CLR     SM10
                                           ; SOURCE LINE # 666
004B D2C6              SETB    SM11
                                           ; SOURCE LINE # 667
004D D2C4              SETB    REN1
                                           ; SOURCE LINE # 668
004F 758920            MOV     TMOD,#020H
                                           ; SOURCE LINE # 670
0052 E58F              MOV     A,CSREPR
0054 54C0              ANL     A,#0C0H
                                           ; SOURCE LINE # 671
0056 6039              JZ      ?C0099
0058 24C0              ADD     A,#0C0H
005A 6020              JZ      ?C0093
005C 2480              ADD     A,#080H
005E 7031              JNZ     ?C0099
                                           ; SOURCE LINE # 672
                                           ; SOURCE LINE # 673
0060         ?C0087:
                                           ; SOURCE LINE # 674
0060 90000000    R     MOV     DPTR,#baudrate
0064 E0                MOVX    A,@DPTR
0065 24FC              ADD     A,#0FCH
0067 600A              JZ      ?C0090
0069 24FE              ADD     A,#0FEH
006B 6008              JZ      ?C0091
006D 2403              ADD     A,#03H
006F 7006              JNZ     ?C0092
                                           ; SOURCE LINE # 675
                                           ; SOURCE LINE # 676
0071         ?C0089:
0071 8004              SJMP    ?C0199
                                           ; SOURCE LINE # 677
0073         ?C0090:
0073 8017              SJMP    ?C0202
                                           ; SOURCE LINE # 678
0075         ?C0091:
0075 801A              SJMP    ?C0204
                                           ; SOURCE LINE # 679
0077         ?C0092:
0077         ?C0199:
0077 758DE5            MOV     TH1,#0E5H
007A 8018              SJMP    ?C0086
                                           ; SOURCE LINE # 680
                                           ; SOURCE LINE # 681
                                           ; SOURCE LINE # 682
007C         ?C0093:
                                           ; SOURCE LINE # 683
007C 90000000    R     MOV     DPTR,#baudrate
0080 E0                MOVX    A,@DPTR
0081 24FC              ADD     A,#0FCH
0083 6005              JZ      ?C0096
0085 04                INC     A
0086 7004              JNZ     ?C0097
                                           ; SOURCE LINE # 684
                                           ; SOURCE LINE # 685
0088         ?C0095:
0088         ?C0200:
C51 COMPILER V8.06   UART                                                                  03/10/2026 15:30:57 PAGE 72  

0088 8002              SJMP    ?C0202
                                           ; SOURCE LINE # 686
008A         ?C0096:
008A         ?C0201:
008A 8005              SJMP    ?C0204
                                           ; SOURCE LINE # 687
008C         ?C0097:
008C         ?C0202:
008C 758DF2            MOV     TH1,#0F2H
008F 8003              SJMP    ?C0086
                                           ; SOURCE LINE # 688
                                           ; SOURCE LINE # 689
                                           ; SOURCE LINE # 690
                                           ; SOURCE LINE # 691
0091         ?C0099:
0091         ?C0204:
0091 758DF9            MOV     TH1,#0F9H
                                           ; SOURCE LINE # 692
0094         ?C0086:
                                           ; SOURCE LINE # 693
0094 D2AE              SETB    ES1
                                           ; SOURCE LINE # 694
0096 D28E              SETB    TR1
                                           ; SOURCE LINE # 695
0098 C2C1              CLR     TI1
                                           ; SOURCE LINE # 696
009A 22                RET     
             ; FUNCTION _uart1_Init (END)

             ; FUNCTION _uart1_PutChar (BEGIN)
                                           ; SOURCE LINE # 706
;---- Variable 'c' assigned to Register 'R3' ----
0000 AB07              MOV     R3,AR7
                                           ; SOURCE LINE # 707
                                           ; SOURCE LINE # 708
;---- Variable 'count' assigned to Register 'R4/R5' ----
0002         ?C0103:
                                           ; SOURCE LINE # 711
                                           ; SOURCE LINE # 712
0002 C2AF              CLR     EA
                                           ; SOURCE LINE # 713
0004 90000000    R     MOV     DPTR,#uart1_TxCount
0008 E0                MOVX    A,@DPTR
0009 FC                MOV     R4,A
000A A3                INC     DPTR
000B E0                MOVX    A,@DPTR
000C FD                MOV     R5,A
                                           ; SOURCE LINE # 714
000D D2AF              SETB    EA
                                           ; SOURCE LINE # 715
                                           ; SOURCE LINE # 716
000F 7003              JNZ     ?C0167
0011 EC                MOV     A,R4
0012 6401              XRL     A,#01H
0014         ?C0167:
0014 60EC              JZ      ?C0103
                                           ; SOURCE LINE # 717
0016 AF03              MOV     R7,AR3
0018 90000000    R     MOV     DPTR,#uart1_TxHead
001C 12000000    R     LCALL   L?0240
0020 12000000    R     LCALL   L?0254
                                           ; SOURCE LINE # 718
C51 COMPILER V8.06   UART                                                                  03/10/2026 15:30:57 PAGE 73  

0024 C2AF              CLR     EA
                                           ; SOURCE LINE # 719
0026 90000000    R     MOV     DPTR,#uart1_TxCount+01H
002A E0                MOVX    A,@DPTR
002B 04                INC     A
002C F0                MOVX    @DPTR,A
002D 7007              JNZ     ?C0168
002F 90000000    R     MOV     DPTR,#uart1_TxCount
0033 E0                MOVX    A,@DPTR
0034 04                INC     A
0035 F0                MOVX    @DPTR,A
0036         ?C0168:
                                           ; SOURCE LINE # 720
0036 D2AF              SETB    EA
                                           ; SOURCE LINE # 721
0038 90000000    R     MOV     DPTR,#uart1_TxHead+01H
003C E0                MOVX    A,@DPTR
003D 04                INC     A
003E F0                MOVX    @DPTR,A
003F 7007              JNZ     ?C0169
0041 90000000    R     MOV     DPTR,#uart1_TxHead
0045 E0                MOVX    A,@DPTR
0046 04                INC     A
0047 F0                MOVX    @DPTR,A
0048         ?C0169:
                                           ; SOURCE LINE # 722
0048 90000000    R     MOV     DPTR,#uart1_TxHead
004C E4                CLR     A
004D F0                MOVX    @DPTR,A
                                           ; SOURCE LINE # 723
004E 90000000    R     MOV     DPTR,#uart1_TxFlag
0052 E0                MOVX    A,@DPTR
0053 700A              JNZ     ?C0104
                                           ; SOURCE LINE # 724
                                           ; SOURCE LINE # 725
                                           ; SOURCE LINE # 726
0055 12000000    R     LCALL   L?0238
0059 12000000    R     LCALL   L?0216
005D F5C1              MOV     SBUF1,A
                                           ; SOURCE LINE # 727
005F         ?C0104:
                                           ; SOURCE LINE # 728
005F AF03              MOV     R7,AR3
0061 EF                MOV     A,R7
0062 33                RLC     A
0063 95E0              SUBB    A,ACC
0065 FE                MOV     R6,A
                                           ; SOURCE LINE # 729
0066         ?C0105:
0066 22                RET     
             ; FUNCTION _uart1_PutChar (END)

             ; FUNCTION uart1_GetKey (BEGIN)
                                           ; SOURCE LINE # 739
                                           ; SOURCE LINE # 740
                                           ; SOURCE LINE # 743
0000 90000000    R     MOV     DPTR,#uart1_RxCount
0004 E0                MOVX    A,@DPTR
0005 7002              JNZ     ?C0170
0007 A3                INC     DPTR
0008 E0                MOVX    A,@DPTR
0009         ?C0170:
C51 COMPILER V8.06   UART                                                                  03/10/2026 15:30:57 PAGE 74  

0009 7004              JNZ     ?C0106
000B 7E01              MOV     R6,#01H
000D FF                MOV     R7,A
000E 22                RET     
000F         ?C0106:
                                           ; SOURCE LINE # 744
                                           ; SOURCE LINE # 745
                                           ; SOURCE LINE # 746
                                           ; SOURCE LINE # 747
000F 12000000    R     LCALL   L?0226
0013 F582              MOV     DPL,A
0015 E4                CLR     A
0016 3400        R     ADDC    A,#HIGH uart1_RxBuf
0018 12000000    R     LCALL   L?0216
;---- Variable 'c' assigned to Register 'R5' ----
001C FD                MOV     R5,A
                                           ; SOURCE LINE # 748
001D 90000000    R     MOV     DPTR,#uart1_RxTail+01H
0021 E0                MOVX    A,@DPTR
0022 04                INC     A
0023 F0                MOVX    @DPTR,A
0024 7007              JNZ     ?C0171
0026 90000000    R     MOV     DPTR,#uart1_RxTail
002A E0                MOVX    A,@DPTR
002B 04                INC     A
002C F0                MOVX    @DPTR,A
002D         ?C0171:
                                           ; SOURCE LINE # 749
002D 90000000    R     MOV     DPTR,#uart1_RxTail
0031 E4                CLR     A
0032 F0                MOVX    @DPTR,A
                                           ; SOURCE LINE # 750
0033 AF05              MOV     R7,AR5
0035 FE                MOV     R6,A
                                           ; SOURCE LINE # 751
0036         ?C0107:
0036 22                RET     
             ; FUNCTION uart1_GetKey (END)

             ; FUNCTION _uart1_PutStr (BEGIN)
                                           ; SOURCE LINE # 761
0000 90000000    R     MOV     DPTR,#pData
0004 12000000    R     LCALL   L?0231
                                           ; SOURCE LINE # 762
                                           ; SOURCE LINE # 763
;---- Variable 'count' assigned to Register 'R6/R7' ----
0008         ?C0110:
                                           ; SOURCE LINE # 767
                                           ; SOURCE LINE # 768
0008 C2AF              CLR     EA
                                           ; SOURCE LINE # 769
000A 90000000    R     MOV     DPTR,#uart1_TxCount
000E E0                MOVX    A,@DPTR
000F FE                MOV     R6,A
0010 A3                INC     DPTR
0011 E0                MOVX    A,@DPTR
0012 FF                MOV     R7,A
                                           ; SOURCE LINE # 770
0013 D2AF              SETB    EA
                                           ; SOURCE LINE # 771
                                           ; SOURCE LINE # 772
0015 90000000    R     MOV     DPTR,#cnt
C51 COMPILER V8.06   UART                                                                  03/10/2026 15:30:57 PAGE 75  

0019 12000000    R     LCALL   L?0264
001D 7003              JNZ     ?C0172
001F EA                MOV     A,R2
0020 6401              XRL     A,#01H
0022         ?C0172:
0022 60E4              JZ      ?C0110
                                           ; SOURCE LINE # 773
0024 90000000    R     MOV     DPTR,#uart1_TxHead+01H
0028 E0                MOVX    A,@DPTR
0029 2D                ADD     A,R5
002A FF                MOV     R7,A
002B 90000000    R     MOV     DPTR,#uart1_TxHead
002F E0                MOVX    A,@DPTR
0030 3C                ADDC    A,R4
0031 12000000    R     LCALL   L?0221
0035 4045              JC      ?C0111
                                           ; SOURCE LINE # 774
                                           ; SOURCE LINE # 775
0037 12000000    R     LCALL   L?0237
003B 90000000    R     MOV     DPTR,#offset+01H
003F F0                MOVX    @DPTR,A
0040 7401              MOV     A,#01H
0042 9E                SUBB    A,R6
0043 90000000    R     MOV     DPTR,#offset
                                           ; SOURCE LINE # 776
0047 12000000    R     LCALL   L?0224
004B C005              PUSH    AR5
004D 7400        R     MOV     A,#LOW uart1_TxBuf
004F 2F                ADD     A,R7
0050 12000000    R     LCALL   L?0260
0054 12000000    R     LCALL   L?0210
0058 F9                MOV     R1,A
0059 D007              POP     AR7
005B 12000000    E     LCALL   ?C?MEMMOVE
                                           ; SOURCE LINE # 777
005F 90000000    R     MOV     DPTR,#cnt
0063 12000000    R     LCALL   L?0228
0067 90000000    R     MOV     DPTR,#pData
006B 12000000    R     LCALL   L?0210
006F 2D                ADD     A,R5
0070 F9                MOV     R1,A
0071 EA                MOV     A,R2
0072 3C                ADDC    A,R4
0073 FA                MOV     R2,A
0074 7800        R     MOV     R0,#LOW uart1_TxBuf
0076 7C00        R     MOV     R4,#HIGH uart1_TxBuf
0078 7D00        R     MOV     R5,#MBYTE uart1_TxBuf
                                           ; SOURCE LINE # 778
007A 8019              SJMP    ?C0205
007C         ?C0111:
                                           ; SOURCE LINE # 780
007C 90000000    R     MOV     DPTR,#cnt
0080 E0                MOVX    A,@DPTR
0081 FF                MOV     R7,A
0082 7E00              MOV     R6,#00H
0084 90000000    R     MOV     DPTR,#uart1_TxHead
0088 A3                INC     DPTR
0089 E0                MOVX    A,@DPTR
008A 2400        R     ADD     A,#LOW uart1_TxBuf
008C 12000000    R     LCALL   L?0260
0090 12000000    R     LCALL   L?0210
0094 F9                MOV     R1,A
C51 COMPILER V8.06   UART                                                                  03/10/2026 15:30:57 PAGE 76  

0095         ?C0205:
0095 12000000    E     LCALL   ?C?MEMMOVE
0099         ?C0112:
                                           ; SOURCE LINE # 781
0099 C2AF              CLR     EA
                                           ; SOURCE LINE # 782
009B 90000000    R     MOV     DPTR,#cnt
009F E0                MOVX    A,@DPTR
00A0 FF                MOV     R7,A
00A1 7E00              MOV     R6,#00H
00A3 90000000    R     MOV     DPTR,#uart1_TxCount+01H
00A7 E0                MOVX    A,@DPTR
00A8 2F                ADD     A,R7
00A9 F0                MOVX    @DPTR,A
00AA 90000000    R     MOV     DPTR,#uart1_TxCount
00AE E0                MOVX    A,@DPTR
00AF 3E                ADDC    A,R6
00B0 F0                MOVX    @DPTR,A
                                           ; SOURCE LINE # 783
00B1 D2AF              SETB    EA
                                           ; SOURCE LINE # 784
00B3 90000000    R     MOV     DPTR,#uart1_TxHead+01H
00B7 E0                MOVX    A,@DPTR
00B8 2F                ADD     A,R7
00B9 F0                MOVX    @DPTR,A
00BA 90000000    R     MOV     DPTR,#uart1_TxHead
00BE E0                MOVX    A,@DPTR
00BF 3E                ADDC    A,R6
00C0 F0                MOVX    @DPTR,A
                                           ; SOURCE LINE # 785
00C1 E4                CLR     A
00C2 F0                MOVX    @DPTR,A
                                           ; SOURCE LINE # 786
00C3 90000000    R     MOV     DPTR,#uart1_TxFlag
00C7 E0                MOVX    A,@DPTR
00C8 700A              JNZ     ?C0114
                                           ; SOURCE LINE # 787
                                           ; SOURCE LINE # 788
                                           ; SOURCE LINE # 789
00CA 12000000    R     LCALL   L?0238
00CE 12000000    R     LCALL   L?0216
00D2 F5C1              MOV     SBUF1,A
                                           ; SOURCE LINE # 790
                                           ; SOURCE LINE # 791
00D4         ?C0114:
00D4 22                RET     
             ; FUNCTION _uart1_PutStr (END)

             ; FUNCTION _uart1_GetBuf (BEGIN)
                                           ; SOURCE LINE # 801
0000 90000000    R     MOV     DPTR,#pData
0004 12000000    R     LCALL   L?0232
                                           ; SOURCE LINE # 802
                                           ; SOURCE LINE # 805
0008 FF                MOV     R7,A
0009 90000000    R     MOV     DPTR,#uart1_RxTail+01H
000D E0                MOVX    A,@DPTR
000E 90000000    R     MOV     DPTR,#uart1_RxTail
0012 12000000    R     LCALL   L?0219
0016 404F              JC      ?C0115
                                           ; SOURCE LINE # 806
                                           ; SOURCE LINE # 807
C51 COMPILER V8.06   UART                                                                  03/10/2026 15:30:57 PAGE 77  

0018 12000000    R     LCALL   L?0237
001C 90000000    R     MOV     DPTR,#offset+01H
0020 F0                MOVX    @DPTR,A
0021 7401              MOV     A,#01H
0023 9E                SUBB    A,R6
0024 90000000    R     MOV     DPTR,#offset
                                           ; SOURCE LINE # 808
0028 12000000    R     LCALL   L?0224
002C C005              PUSH    AR5
002E 12000000    R     LCALL   L?0244
0032 C003              PUSH    AR3
0034 C002              PUSH    AR2
0036 90000000    R     MOV     DPTR,#pData
003A 12000000    R     LCALL   L?0210
003E F8                MOV     R0,A
003F AC02              MOV     R4,AR2
0041 AD03              MOV     R5,AR3
0043 D002              POP     AR2
0045 D003              POP     AR3
0047 D007              POP     AR7
0049 12000000    E     LCALL   ?C?MEMMOVE
                                           ; SOURCE LINE # 809
004D 90000000    R     MOV     DPTR,#cnt
0051 12000000    R     LCALL   L?0229
0055 90000000    R     MOV     DPTR,#pData
0059 12000000    R     LCALL   L?0210
005D 12000000    R     LCALL   L?0273
0061 12000000    R     LCALL   L?0280
                                           ; SOURCE LINE # 810
0065 8025              SJMP    ?C0206
0067         ?C0115:
                                           ; SOURCE LINE # 812
0067 90000000    R     MOV     DPTR,#cnt
006B E0                MOVX    A,@DPTR
006C FF                MOV     R7,A
006D 7E00              MOV     R6,#00H
006F 12000000    R     LCALL   L?0227
0073 12000000    R     LCALL   L?0245
0077 C003              PUSH    AR3
0079 C002              PUSH    AR2
007B 90000000    R     MOV     DPTR,#pData
007F 12000000    R     LCALL   L?0210
0083 F8                MOV     R0,A
0084 AC02              MOV     R4,AR2
0086 AD03              MOV     R5,AR3
0088 D002              POP     AR2
008A D003              POP     AR3
008C         ?C0206:
008C 12000000    E     LCALL   ?C?MEMMOVE
                                           ; SOURCE LINE # 813
0090         ?C0117:
0090 22                RET     
             ; FUNCTION _uart1_GetBuf (END)

             ; FUNCTION _uart1_RxBufUpdate (BEGIN)
                                           ; SOURCE LINE # 822
;---- Variable 'cnt' assigned to Register 'R3' ----
                                           ; SOURCE LINE # 823
                                           ; SOURCE LINE # 825
0000 EF                MOV     A,R7
0001 FD                MOV     R5,A
0002 7C00              MOV     R4,#00H
C51 COMPILER V8.06   UART                                                                  03/10/2026 15:30:57 PAGE 78  

0004 90000000    R     MOV     DPTR,#uart1_RxTail+01H
0008 E0                MOVX    A,@DPTR
0009 2D                ADD     A,R5
000A F0                MOVX    @DPTR,A
000B 90000000    R     MOV     DPTR,#uart1_RxTail
000F E0                MOVX    A,@DPTR
0010 3C                ADDC    A,R4
0011 F0                MOVX    @DPTR,A
                                           ; SOURCE LINE # 826
0012 E4                CLR     A
0013 F0                MOVX    @DPTR,A
                                           ; SOURCE LINE # 827
0014 C2AF              CLR     EA
                                           ; SOURCE LINE # 828
0016 C3                CLR     C
0017 90000000    R     MOV     DPTR,#uart1_RxCount+01H
001B E0                MOVX    A,@DPTR
001C 9D                SUBB    A,R5
001D F0                MOVX    @DPTR,A
001E 90000000    R     MOV     DPTR,#uart1_RxCount
0022 E0                MOVX    A,@DPTR
0023 9C                SUBB    A,R4
0024 F0                MOVX    @DPTR,A
                                           ; SOURCE LINE # 829
0025 D2AF              SETB    EA
                                           ; SOURCE LINE # 831
0027 22                RET     
             ; FUNCTION _uart1_RxBufUpdate (END)

             ; FUNCTION _uart1_RxPtrSet (BEGIN)
                                           ; SOURCE LINE # 840
;---- Variable 'c' assigned to Register 'R7' ----
                                           ; SOURCE LINE # 841
                                           ; SOURCE LINE # 845
0000 90000000    R     MOV     DPTR,#uart1_RxTail
0004 E0                MOVX    A,@DPTR
0005 FC                MOV     R4,A
0006 A3                INC     DPTR
0007 E0                MOVX    A,@DPTR
0008 FD                MOV     R5,A
0009 C3                CLR     C
000A E4                CLR     A
000B 9D                SUBB    A,R5
000C 90000000    R     MOV     DPTR,#length+01H
0010 F0                MOVX    @DPTR,A
0011 90000000    R     MOV     DPTR,#length
                                           ; SOURCE LINE # 846
0015 12000000    R     LCALL   L?0263
0019 C003              PUSH    AR3
001B 7400        R     MOV     A,#LOW uart1_RxBuf
001D 2D                ADD     A,R5
001E 12000000    R     LCALL   L?0245
0022 AD07              MOV     R5,AR7
0024 D007              POP     AR7
0026 12000000    E     LCALL   ?C?MEMCHR
002A 90000000    R     MOV     DPTR,#pData1
002E EB                MOV     A,R3
002F F0                MOVX    @DPTR,A
0030 A3                INC     DPTR
0031 EA                MOV     A,R2
0032 F0                MOVX    @DPTR,A
0033 A3                INC     DPTR
C51 COMPILER V8.06   UART                                                                  03/10/2026 15:30:57 PAGE 79  

0034 E9                MOV     A,R1
0035 F0                MOVX    @DPTR,A
                                           ; SOURCE LINE # 847
0036 7B00        R     MOV     R3,#MBYTE uart1_RxBuf
0038 7A00        R     MOV     R2,#HIGH uart1_RxBuf+0100H
003A 7900        R     MOV     R1,#LOW uart1_RxBuf+0100H
;---- Variable 'pData2' assigned to Register 'R1/R2/R3' ----
                                           ; SOURCE LINE # 848
003C 12000000    E     LCALL   ?C?CLDPTR
0040 FF                MOV     R7,A
0041 90000000    R     MOV     DPTR,#pData1
0045 12000000    R     LCALL   L?0210
0049 12000000    R     LCALL   L?0262
004D 90000000    R     MOV     DPTR,#length
0051 F0                MOVX    @DPTR,A
0052 A3                INC     DPTR
0053 EF                MOV     A,R7
0054 F0                MOVX    @DPTR,A
                                           ; SOURCE LINE # 849
0055 90000000    R     MOV     DPTR,#uart1_RxTail
0059 EE                MOV     A,R6
005A F0                MOVX    @DPTR,A
005B A3                INC     DPTR
005C EF                MOV     A,R7
005D F0                MOVX    @DPTR,A
                                           ; SOURCE LINE # 850
005E 2400        R     ADD     A,#LOW uart1_RxBuf
0060 F582              MOV     DPL,A
0062 E4                CLR     A
0063 3400        R     ADDC    A,#HIGH uart1_RxBuf
0065 12000000    R     LCALL   L?0216
0069 FF                MOV     R7,A
                                           ; SOURCE LINE # 851
006A         ?C0119:
006A 22                RET     
             ; FUNCTION _uart1_RxPtrSet (END)

             ; FUNCTION _uart1_RxBufSet (BEGIN)
                                           ; SOURCE LINE # 860
0000 90000000    R     MOV     DPTR,#c
0004 12000000    R     LCALL   L?0249
                                           ; SOURCE LINE # 861
                                           ; SOURCE LINE # 864
0008 90000000    R     MOV     DPTR,#uart1_RxTail+01H
000C E0                MOVX    A,@DPTR
000D 2D                ADD     A,R5
000E FF                MOV     R7,A
000F 90000000    R     MOV     DPTR,#uart1_RxTail
0013 E0                MOVX    A,@DPTR
0014 3C                ADDC    A,R4
0015 12000000    R     LCALL   L?0221
0019 4044              JC      ?C0120
                                           ; SOURCE LINE # 865
                                           ; SOURCE LINE # 866
001B 12000000    R     LCALL   L?0237
001F 90000000    R     MOV     DPTR,#offset+01H
0023 F0                MOVX    @DPTR,A
0024 7401              MOV     A,#01H
0026 9E                SUBB    A,R6
0027 90000000    R     MOV     DPTR,#offset
                                           ; SOURCE LINE # 867
002B 12000000    R     LCALL   L?0224
C51 COMPILER V8.06   UART                                                                  03/10/2026 15:30:57 PAGE 80  

002F C005              PUSH    AR5
0031 12000000    R     LCALL   L?0282
0035 12000000    R     LCALL   L?0244
0039 D007              POP     AR7
003B 12000000    E     LCALL   ?C?MEMSET
                                           ; SOURCE LINE # 868
003F 90000000    R     MOV     DPTR,#offset
0043 12000000    R     LCALL   L?0279
0047 90000000    R     MOV     DPTR,#len+01H
004B E0                MOVX    A,@DPTR
004C 9F                SUBB    A,R7
004D FF                MOV     R7,A
004E 90000000    R     MOV     DPTR,#len
0052 E0                MOVX    A,@DPTR
0053 9E                SUBB    A,R6
0054 FE                MOV     R6,A
0055 12000000    R     LCALL   L?0282
0059 12000000    R     LCALL   L?0281
                                           ; SOURCE LINE # 869
005D 8015              SJMP    ?C0207
005F         ?C0120:
                                           ; SOURCE LINE # 871
005F 90000000    R     MOV     DPTR,#len
0063 E0                MOVX    A,@DPTR
0064 FE                MOV     R6,A
0065 A3                INC     DPTR
0066 E0                MOVX    A,@DPTR
0067 FF                MOV     R7,A
0068 12000000    R     LCALL   L?0283
006C 12000000    R     LCALL   L?0227
0070 12000000    R     LCALL   L?0245
0074         ?C0207:
0074 12000000    E     LCALL   ?C?MEMSET
                                           ; SOURCE LINE # 873
0078         ?C0122:
0078 22                RET     
             ; FUNCTION _uart1_RxBufSet (END)

             ; FUNCTION _uart1_RxBufCmp (BEGIN)
                                           ; SOURCE LINE # 882
0000 90000000    R     MOV     DPTR,#pData
0004 12000000    R     LCALL   L?0232
                                           ; SOURCE LINE # 883
                                           ; SOURCE LINE # 887
0008 FF                MOV     R7,A
0009 90000000    R     MOV     DPTR,#uart1_RxTail+01H
000D E0                MOVX    A,@DPTR
000E 2F                ADD     A,R7
000F FF                MOV     R7,A
0010 90000000    R     MOV     DPTR,#uart1_RxTail
0014 12000000    R     LCALL   L?0220
0018 4055              JC      ?C0123
                                           ; SOURCE LINE # 888
                                           ; SOURCE LINE # 889
001A 12000000    R     LCALL   L?0237
001E 90000000    R     MOV     DPTR,#offset+01H
0022 F0                MOVX    @DPTR,A
0023 7401              MOV     A,#01H
0025 9E                SUBB    A,R6
0026 90000000    R     MOV     DPTR,#offset
                                           ; SOURCE LINE # 890
002A 12000000    R     LCALL   L?0224
C51 COMPILER V8.06   UART                                                                  03/10/2026 15:30:57 PAGE 81  

002E C005              PUSH    AR5
0030 7400        R     MOV     A,#LOW uart1_RxBuf
0032 2F                ADD     A,R7
0033 12000000    R     LCALL   L?0261
0037 12000000    R     LCALL   L?0210
003B F9                MOV     R1,A
003C D007              POP     AR7
003E 12000000    R     LCALL   L?0266
                                           ; SOURCE LINE # 891
0042 E0                MOVX    A,@DPTR
0043 FF                MOV     R7,A
0044 C007              PUSH    AR7
0046 90000000    R     MOV     DPTR,#len
004A 12000000    R     LCALL   L?0229
004E 90000000    R     MOV     DPTR,#pData
0052 12000000    R     LCALL   L?0210
0056 2D                ADD     A,R5
0057 F9                MOV     R1,A
0058 EA                MOV     A,R2
0059 3C                ADDC    A,R4
005A FA                MOV     R2,A
005B 7800        R     MOV     R0,#LOW uart1_RxBuf
005D 7C00        R     MOV     R4,#HIGH uart1_RxBuf
005F 7D00        R     MOV     R5,#MBYTE uart1_RxBuf
0061 12000000    E     LCALL   ?C?MEMCMP
0065 D0E0              POP     ACC
0067 4F                ORL     A,R7
0068 90000000    R     MOV     DPTR,#result
006C F0                MOVX    @DPTR,A
                                           ; SOURCE LINE # 892
006D 8019              SJMP    ?C0124
006F         ?C0123:
                                           ; SOURCE LINE # 894
006F 90000000    R     MOV     DPTR,#len
0073 E0                MOVX    A,@DPTR
0074 FF                MOV     R7,A
0075 7E00              MOV     R6,#00H
0077 12000000    R     LCALL   L?0227
007B 12000000    R     LCALL   L?0261
007F 12000000    R     LCALL   L?0210
0083 F9                MOV     R1,A
0084 12000000    R     LCALL   L?0266
0088         ?C0124:
                                           ; SOURCE LINE # 896
0088 90000000    R     MOV     DPTR,#result
008C E0                MOVX    A,@DPTR
008D FF                MOV     R7,A
                                           ; SOURCE LINE # 897
008E         ?C0125:
008E 22                RET     
             ; FUNCTION _uart1_RxBufCmp (END)

             ; FUNCTION uart1_GetByteCount (BEGIN)
                                           ; SOURCE LINE # 906
                                           ; SOURCE LINE # 907
                                           ; SOURCE LINE # 908
0000 12000000    R     LCALL   L?0284
                                           ; SOURCE LINE # 909
0004         ?C0126:
0004 22                RET     
             ; FUNCTION uart1_GetByteCount (END)

C51 COMPILER V8.06   UART                                                                  03/10/2026 15:30:57 PAGE 82  

             ; FUNCTION _uart1_DisplayRxPointers (BEGIN)
                                           ; SOURCE LINE # 918
0000 90000000    R     MOV     DPTR,#crlf
0004 EF                MOV     A,R7
0005 F0                MOVX    @DPTR,A
                                           ; SOURCE LINE # 919
                                           ; SOURCE LINE # 920
0006 7B00        R     MOV     R3,#MBYTE ?SC_471
0008 7A00        R     MOV     R2,#HIGH ?SC_471
000A 7900        R     MOV     R1,#LOW ?SC_471
000C 90000000    R     MOV     DPTR,#uart1_RxHead
0010 12000000    R     LCALL   L?0250
0014 90000000    R     MOV     DPTR,#uart1_RxTail
0018 12000000    R     LCALL   L?0258
001C 90000000    R     MOV     DPTR,#uart1_RxCount
0020 12000000    R     LCALL   L?0259
0024 12000000    E     LCALL   _printd
                                           ; SOURCE LINE # 921
0028 90000000    R     MOV     DPTR,#crlf
002C E0                MOVX    A,@DPTR
002D 7008              JNZ     ?C0128
002F 12000000    R     LCALL   L?0269
0033 12000000    E     LCALL   _printd
                                           ; SOURCE LINE # 922
0037         ?C0128:
0037 22                RET     
             ; FUNCTION _uart1_DisplayRxPointers (END)

             ; FUNCTION _uart_ShowBuffer (BEGIN)
                                           ; SOURCE LINE # 931
0000 90000000    R     MOV     DPTR,#pd
0004 12000000    R     LCALL   L?0232
                                           ; SOURCE LINE # 932
                                           ; SOURCE LINE # 935
0008 E4                CLR     A
0009 A3                INC     DPTR
000A F0                MOVX    @DPTR,A
000B A3                INC     DPTR
000C F0                MOVX    @DPTR,A
000D         ?C0129:
000D 90000000    R     MOV     DPTR,#eol
0011 12000000    R     LCALL   L?0247
0015 FD                MOV     R5,A
0016 C3                CLR     C
0017 9F                SUBB    A,R7
0018 EC                MOV     A,R4
0019 9400              SUBB    A,#00H
001B 5055              JNC     ?C0130
                                           ; SOURCE LINE # 936
                                           ; SOURCE LINE # 937
001D ED                MOV     A,R5
001E 540F              ANL     A,#0FH
0020 7013              JNZ     ?C0132
0022 7B00        R     MOV     R3,#MBYTE ?SC_454
0024 7A00        R     MOV     R2,#HIGH ?SC_454
0026 7900        R     MOV     R1,#LOW ?SC_454
0028 90000000    E     MOV     DPTR,#?_printd?BYTE+03H
002C EC                MOV     A,R4
002D F0                MOVX    @DPTR,A
002E A3                INC     DPTR
002F ED                MOV     A,R5
0030 F0                MOVX    @DPTR,A
C51 COMPILER V8.06   UART                                                                  03/10/2026 15:30:57 PAGE 83  

0031 12000000    E     LCALL   _printd
0035         ?C0132:
                                           ; SOURCE LINE # 938
0035 90000000    R     MOV     DPTR,#pd
0039 12000000    R     LCALL   L?0210
003D F9                MOV     R1,A
003E 90000000    R     MOV     DPTR,#i
0042 E0                MOVX    A,@DPTR
0043 FE                MOV     R6,A
0044 A3                INC     DPTR
0045 E0                MOVX    A,@DPTR
0046 FF                MOV     R7,A
0047 E9                MOV     A,R1
0048 2F                ADD     A,R7
0049 F9                MOV     R1,A
004A EA                MOV     A,R2
004B 3E                ADDC    A,R6
004C FA                MOV     R2,A
004D 12000000    E     LCALL   ?C?CLDPTR
0051 90000000    E     MOV     DPTR,#?_printd?BYTE+03H
0055 F0                MOVX    @DPTR,A
0056 7B00        R     MOV     R3,#MBYTE ?SC_464
0058 7A00        R     MOV     R2,#HIGH ?SC_464
005A 7900        R     MOV     R1,#LOW ?SC_464
005C 12000000    E     LCALL   _printd
                                           ; SOURCE LINE # 939
0060 90000000    R     MOV     DPTR,#i+01H
0064 E0                MOVX    A,@DPTR
0065 04                INC     A
0066 F0                MOVX    @DPTR,A
0067 70A4              JNZ     ?C0129
0069 90000000    R     MOV     DPTR,#i
006D E0                MOVX    A,@DPTR
006E 04                INC     A
006F F0                MOVX    @DPTR,A
0070         ?C0173:
0070 809B              SJMP    ?C0129
0072         ?C0130:
                                           ; SOURCE LINE # 940
0072 7B00        R     MOV     R3,#MBYTE ?SC_514
0074 7A00        R     MOV     R2,#HIGH ?SC_514
0076 7900        R     MOV     R1,#LOW ?SC_514
0078 02000000    E     LJMP    _printd
             ; FUNCTION _uart_ShowBuffer (END)

             ; FUNCTION uart1_NoBlockGetkey (BEGIN)
                                           ; SOURCE LINE # 952
                                           ; SOURCE LINE # 953
                                           ; SOURCE LINE # 954
;---- Variable 'c' assigned to Register 'R5' ----
                                           ; SOURCE LINE # 956
0000 90000000    R     MOV     DPTR,#uart1_RxCount
0004 E0                MOVX    A,@DPTR
0005 7002              JNZ     ?C0174
0007 A3                INC     DPTR
0008 E0                MOVX    A,@DPTR
0009         ?C0174:
0009 6027              JZ      ?C0134
                                           ; SOURCE LINE # 957
                                           ; SOURCE LINE # 958
                                           ; SOURCE LINE # 959
                                           ; SOURCE LINE # 960
C51 COMPILER V8.06   UART                                                                  03/10/2026 15:30:57 PAGE 84  

                                           ; SOURCE LINE # 961
000B 12000000    R     LCALL   L?0226
000F F582              MOV     DPL,A
0011 E4                CLR     A
0012 3400        R     ADDC    A,#HIGH uart1_RxBuf
0014 12000000    R     LCALL   L?0216
0018 FD                MOV     R5,A
                                           ; SOURCE LINE # 962
0019 90000000    R     MOV     DPTR,#uart1_RxTail+01H
001D E0                MOVX    A,@DPTR
001E 04                INC     A
001F F0                MOVX    @DPTR,A
0020 7007              JNZ     ?C0175
0022 90000000    R     MOV     DPTR,#uart1_RxTail
0026 E0                MOVX    A,@DPTR
0027 04                INC     A
0028 F0                MOVX    @DPTR,A
0029         ?C0175:
                                           ; SOURCE LINE # 963
0029 90000000    R     MOV     DPTR,#uart1_RxTail
002D E4                CLR     A
002E F0                MOVX    @DPTR,A
                                           ; SOURCE LINE # 964
002F AF05              MOV     R7,AR5
0031 22                RET     
                                           ; SOURCE LINE # 965
0032         ?C0134:
                                           ; SOURCE LINE # 967
                                           ; SOURCE LINE # 968
0032 7F00              MOV     R7,#00H
                                           ; SOURCE LINE # 969
                                           ; SOURCE LINE # 970
0034         ?C0135:
0034 22                RET     
             ; FUNCTION uart1_NoBlockGetkey (END)

             ; FUNCTION uart1_TxChk (BEGIN)
                                           ; SOURCE LINE # 979
                                           ; SOURCE LINE # 980
                                           ; SOURCE LINE # 981
0000 90000000    R     MOV     DPTR,#uart1_TxFlag
0004 E0                MOVX    A,@DPTR
0005 FF                MOV     R7,A
                                           ; SOURCE LINE # 982
0006         ?C0137:
0006 22                RET     
             ; FUNCTION uart1_TxChk (END)

             ; FUNCTION UA1_GetCount (BEGIN)
                                           ; SOURCE LINE # 984
                                           ; SOURCE LINE # 985
                                           ; SOURCE LINE # 986
0000 12000000    R     LCALL   L?0284
                                           ; SOURCE LINE # 987
0004         ?C0138:
0004 22                RET     
             ; FUNCTION UA1_GetCount (END)

             ; FUNCTION _uart_Init (BEGIN)
                                           ; SOURCE LINE # 1000
0000 90000000    R     MOV     DPTR,#baudrate
0004 EC                MOV     A,R4
C51 COMPILER V8.06   UART                                                                  03/10/2026 15:30:57 PAGE 85  

0005 F0                MOVX    @DPTR,A
0006 A3                INC     DPTR
0007 ED                MOV     A,R5
0008 F0                MOVX    @DPTR,A
0009 A3                INC     DPTR
000A EA                MOV     A,R2
000B F0                MOVX    @DPTR,A
000C A3                INC     DPTR
000D EB                MOV     A,R3
000E F0                MOVX    @DPTR,A
000F 90000000    R     MOV     DPTR,#port
0013 EF                MOV     A,R7
0014 F0                MOVX    @DPTR,A
                                           ; SOURCE LINE # 1001
                                           ; SOURCE LINE # 1002
0015 7009              JNZ     ?C0139
                                           ; SOURCE LINE # 1003
                                           ; SOURCE LINE # 1004
0017 12000000    R     LCALL   L?0246
001B FD                MOV     R5,A
001C 02000000    R     LJMP    _uart0_Init
                                           ; SOURCE LINE # 1005
0020         ?C0139:
                                           ; SOURCE LINE # 1006
0020 90000000    R     MOV     DPTR,#port
0024 E0                MOVX    A,@DPTR
0025 B40109            CJNE    A,#01H,?C0142
                                           ; SOURCE LINE # 1007
                                           ; SOURCE LINE # 1008
0028 12000000    R     LCALL   L?0246
002C FD                MOV     R5,A
002D 12000000    R     LCALL   _uart1_Init
                                           ; SOURCE LINE # 1009
                                           ; SOURCE LINE # 1010
0031         ?C0142:
0031 22                RET     
             ; FUNCTION _uart_Init (END)

             ; FUNCTION _UART_ParityChk (BEGIN)
                                           ; SOURCE LINE # 1019
0000 90000000    R     MOV     DPTR,#checkByte
0004 EF                MOV     A,R7
0005 F0                MOVX    @DPTR,A
                                           ; SOURCE LINE # 1020
                                           ; SOURCE LINE # 1024
;---- Variable 'bitSum' assigned to Register 'R1' ----
0006 E4                CLR     A
0007 F9                MOV     R1,A
                                           ; SOURCE LINE # 1025
;---- Variable 'i' assigned to Register 'R4/R5' ----
0008 FD                MOV     R5,A
0009 FC                MOV     R4,A
000A         ?C0143:
                                           ; SOURCE LINE # 1026
                                           ; SOURCE LINE # 1027
000A AF05              MOV     R7,AR5
000C 7401              MOV     A,#01H
000E 7E00              MOV     R6,#00H
0010 A807              MOV     R0,AR7
0012 08                INC     R0
0013 8005              SJMP    ?C0177
0015         ?C0176:
C51 COMPILER V8.06   UART                                                                  03/10/2026 15:30:57 PAGE 86  

0015 C3                CLR     C
0016 33                RLC     A
0017 CE                XCH     A,R6
0018 33                RLC     A
0019 CE                XCH     A,R6
001A         ?C0177:
001A D8F9              DJNZ    R0,?C0176
001C FF                MOV     R7,A
001D 90000000    R     MOV     DPTR,#checkByte
0021 E0                MOVX    A,@DPTR
0022 FB                MOV     R3,A
0023 33                RLC     A
0024 95E0              SUBB    A,ACC
0026 5E                ANL     A,R6
0027 FE                MOV     R6,A
0028 EF                MOV     A,R7
0029 5B                ANL     A,R3
002A 4E                ORL     A,R6
002B 6001              JZ      ?C0145
                                           ; SOURCE LINE # 1028
                                           ; SOURCE LINE # 1029
002D 09                INC     R1
                                           ; SOURCE LINE # 1030
                                           ; SOURCE LINE # 1031
002E         ?C0145:
002E 0D                INC     R5
002F BD0001            CJNE    R5,#00H,?C0178
0032 0C                INC     R4
0033         ?C0178:
0033 ED                MOV     A,R5
0034 6408              XRL     A,#08H
0036 4C                ORL     A,R4
0037 70D1              JNZ     ?C0143
0039         ?C0144:
                                           ; SOURCE LINE # 1032
0039 E9                MOV     A,R1
003A 20E004            JB      ACC.0,?C0147
                                           ; SOURCE LINE # 1033
003D E4                CLR     A
003E FE                MOV     R6,A
003F FF                MOV     R7,A
0040 22                RET     
0041         ?C0147:
                                           ; SOURCE LINE # 1034
0041 7E00              MOV     R6,#00H
0043 7F01              MOV     R7,#01H
                                           ; SOURCE LINE # 1035
0045         ?C0148:
0045 22                RET     
             ; FUNCTION _UART_ParityChk (END)

             ; FUNCTION _UART_SetPort (BEGIN)
                                           ; SOURCE LINE # 1044
;---- Variable 'portNum' assigned to Register 'R7' ----
                                           ; SOURCE LINE # 1045
                                           ; SOURCE LINE # 1046
0000 EF                MOV     A,R7
0001 5403              ANL     A,#03H
0003 FF                MOV     R7,A
0004 E4                CLR     A
0005 FB                MOV     R3,A
0006 FA                MOV     R2,A
C51 COMPILER V8.06   UART                                                                  03/10/2026 15:30:57 PAGE 87  

0007 7D03              MOV     R5,#03H
0009 FC                MOV     R4,A
000A 12000000    R     LCALL   _uart_Init
                                           ; SOURCE LINE # 1047
000E 7E00              MOV     R6,#00H
0010 7F01              MOV     R7,#01H
                                           ; SOURCE LINE # 1048
0012         ?C0149:
0012 22                RET     
             ; FUNCTION _UART_SetPort (END)

C51 COMPILER V8.06   UART                                                                  03/10/2026 15:30:57 PAGE 88  

NAME                                    CLASS   MSPACE  TYPE    OFFSET  SIZE
====                                    =====   ======  ====    ======  ====


TB08 . . . . . . . . . . . . . . . . .  ABSBIT   -----  BIT      009BH  1
TB18 . . . . . . . . . . . . . . . . .  ABSBIT   -----  BIT      00C3H  1
P0 . . . . . . . . . . . . . . . . . .  SFR      DATA   U_CHAR   0080H  1
_uart0_RxPtrSet. . . . . . . . . . . .  PUBLIC   CODE   PROC     0000H  -----
  c. . . . . . . . . . . . . . . . . .  * REG *  DATA   U_CHAR   0007H  1
  length . . . . . . . . . . . . . . .  AUTO     XDATA  U_INT    0000H  2
  pData1 . . . . . . . . . . . . . . .  AUTO     XDATA  PTR      0002H  3
  pData2 . . . . . . . . . . . . . . .  * REG *  DATA   PTR      0001H  3
SM00 . . . . . . . . . . . . . . . . .  ABSBIT   -----  BIT      009FH  1
P1 . . . . . . . . . . . . . . . . . .  SFR      DATA   U_CHAR   0090H  1
_uart1_RxPtrSet. . . . . . . . . . . .  PUBLIC   CODE   PROC     0000H  -----
  c. . . . . . . . . . . . . . . . . .  * REG *  DATA   U_CHAR   0007H  1
  length . . . . . . . . . . . . . . .  AUTO     XDATA  U_INT    0000H  2
  pData1 . . . . . . . . . . . . . . .  AUTO     XDATA  PTR      0002H  3
  pData2 . . . . . . . . . . . . . . .  * REG *  DATA   PTR      0001H  3
SM10 . . . . . . . . . . . . . . . . .  ABSBIT   -----  BIT      00C7H  1
SM01 . . . . . . . . . . . . . . . . .  ABSBIT   -----  BIT      009EH  1
P2 . . . . . . . . . . . . . . . . . .  SFR      DATA   U_CHAR   00A0H  1
SM11 . . . . . . . . . . . . . . . . .  ABSBIT   -----  BIT      00C6H  1
SM02 . . . . . . . . . . . . . . . . .  ABSBIT   -----  BIT      009DH  1
P3 . . . . . . . . . . . . . . . . . .  SFR      DATA   U_CHAR   00B0H  1
AC . . . . . . . . . . . . . . . . . .  ABSBIT   -----  BIT      00D6H  1
SM12 . . . . . . . . . . . . . . . . .  ABSBIT   -----  BIT      00C5H  1
T0 . . . . . . . . . . . . . . . . . .  ABSBIT   -----  BIT      00B4H  1
SPIDR. . . . . . . . . . . . . . . . .  SFR      DATA   U_CHAR   00CFH  1
T1 . . . . . . . . . . . . . . . . . .  ABSBIT   -----  BIT      00B5H  1
EA . . . . . . . . . . . . . . . . . .  ABSBIT   -----  BIT      00AFH  1
OWCIR. . . . . . . . . . . . . . . . .  SFR      DATA   U_CHAR   00D6H  1
_uart0_PutChar . . . . . . . . . . . .  PUBLIC   CODE   PROC     0000H  -----
  c. . . . . . . . . . . . . . . . . .  * REG *  DATA   CHAR     0003H  1
  count. . . . . . . . . . . . . . . .  * REG *  DATA   U_INT    0004H  2
CH . . . . . . . . . . . . . . . . . .  SFR      DATA   U_CHAR   00C5H  1
_uart1_PutChar . . . . . . . . . . . .  PUBLIC   CODE   PROC     0000H  -----
  c. . . . . . . . . . . . . . . . . .  * REG *  DATA   CHAR     0003H  1
  count. . . . . . . . . . . . . . . .  * REG *  DATA   U_INT    0004H  2
DPH0 . . . . . . . . . . . . . . . . .  SFR      DATA   U_CHAR   0083H  1
IE . . . . . . . . . . . . . . . . . .  SFR      DATA   U_CHAR   00A8H  1
DPH1 . . . . . . . . . . . . . . . . .  SFR      DATA   U_CHAR   0085H  1
uart0_RxHead . . . . . . . . . . . . .  PUBLIC   XDATA  U_INT    0000H  2
CL . . . . . . . . . . . . . . . . . .  SFR      DATA   U_CHAR   00C4H  1
_uart0_GetBuf. . . . . . . . . . . . .  PUBLIC   CODE   PROC     0000H  -----
  pData. . . . . . . . . . . . . . . .  AUTO     XDATA  PTR      0000H  3
  cnt. . . . . . . . . . . . . . . . .  AUTO     XDATA  U_CHAR   0003H  1
  offset . . . . . . . . . . . . . . .  AUTO     XDATA  U_INT    0004H  2
uart1_RxHead . . . . . . . . . . . . .  PUBLIC   XDATA  U_INT    0002H  2
P0_0 . . . . . . . . . . . . . . . . .  ABSBIT   -----  BIT      0080H  1
uart0_TxHead . . . . . . . . . . . . .  STATIC   XDATA  U_INT    0004H  2
_uart1_GetBuf. . . . . . . . . . . . .  PUBLIC   CODE   PROC     0000H  -----
  pData. . . . . . . . . . . . . . . .  AUTO     XDATA  PTR      0000H  3
  cnt. . . . . . . . . . . . . . . . .  AUTO     XDATA  U_CHAR   0003H  1
  offset . . . . . . . . . . . . . . .  AUTO     XDATA  U_INT    0004H  2
P1_0 . . . . . . . . . . . . . . . . .  ABSBIT   -----  BIT      0090H  1
P0_1 . . . . . . . . . . . . . . . . .  ABSBIT   -----  BIT      0081H  1
CCAPH0 . . . . . . . . . . . . . . . .  SFR      DATA   U_CHAR   00B9H  1
DPL0 . . . . . . . . . . . . . . . . .  SFR      DATA   U_CHAR   0082H  1
uart1_TxHead . . . . . . . . . . . . .  STATIC   XDATA  U_INT    0006H  2
size_t . . . . . . . . . . . . . . . .  TYPEDEF  -----  U_INT    -----  2
C51 COMPILER V8.06   UART                                                                  03/10/2026 15:30:57 PAGE 89  

NAME                                    CLASS   MSPACE  TYPE    OFFSET  SIZE
====                                    =====   ======  ====    ======  ====


P2_0 . . . . . . . . . . . . . . . . .  ABSBIT   -----  BIT      00A0H  1
P1_1 . . . . . . . . . . . . . . . . .  ABSBIT   -----  BIT      0091H  1
P0_2 . . . . . . . . . . . . . . . . .  ABSBIT   -----  BIT      0082H  1
CCAPH1 . . . . . . . . . . . . . . . .  SFR      DATA   U_CHAR   00BAH  1
DPL1 . . . . . . . . . . . . . . . . .  SFR      DATA   U_CHAR   0084H  1
P3_0 . . . . . . . . . . . . . . . . .  ABSBIT   -----  BIT      00B0H  1
P2_1 . . . . . . . . . . . . . . . . .  ABSBIT   -----  BIT      00A1H  1
P1_2 . . . . . . . . . . . . . . . . .  ABSBIT   -----  BIT      0092H  1
P0_3 . . . . . . . . . . . . . . . . .  ABSBIT   -----  BIT      0083H  1
UR2_DLH. . . . . . . . . . . . . . . .  SFR      DATA   U_CHAR   00E2H  1
CCAPH2 . . . . . . . . . . . . . . . .  SFR      DATA   U_CHAR   00BBH  1
XMRHR. . . . . . . . . . . . . . . . .  SFR      DATA   U_CHAR   00A7H  1
P3_1 . . . . . . . . . . . . . . . . .  ABSBIT   -----  BIT      00B1H  1
P2_2 . . . . . . . . . . . . . . . . .  ABSBIT   -----  BIT      00A2H  1
P1_3 . . . . . . . . . . . . . . . . .  ABSBIT   -----  BIT      0093H  1
P0_4 . . . . . . . . . . . . . . . . .  ABSBIT   -----  BIT      0084H  1
CCAPH3 . . . . . . . . . . . . . . . .  SFR      DATA   U_CHAR   00BCH  1
_printd. . . . . . . . . . . . . . . .  EXTERN   CODE   PROC     -----  -----
uart0_GetByteCount . . . . . . . . . .  PUBLIC   CODE   PROC     0000H  -----
P3_2 . . . . . . . . . . . . . . . . .  ABSBIT   -----  BIT      00B2H  1
P2_3 . . . . . . . . . . . . . . . . .  ABSBIT   -----  BIT      00A3H  1
P1_4 . . . . . . . . . . . . . . . . .  ABSBIT   -----  BIT      0094H  1
P0_5 . . . . . . . . . . . . . . . . .  ABSBIT   -----  BIT      0085H  1
TA . . . . . . . . . . . . . . . . . .  SFR      DATA   U_CHAR   00EBH  1
CCAPH4 . . . . . . . . . . . . . . . .  SFR      DATA   U_CHAR   00BDH  1
CCAPL0 . . . . . . . . . . . . . . . .  SFR      DATA   U_CHAR   00B1H  1
uart1_GetByteCount . . . . . . . . . .  PUBLIC   CODE   PROC     0000H  -----
EXF2 . . . . . . . . . . . . . . . . .  ABSBIT   -----  BIT      00CEH  1
RD . . . . . . . . . . . . . . . . . .  ABSBIT   -----  BIT      00B7H  1
P3_3 . . . . . . . . . . . . . . . . .  ABSBIT   -----  BIT      00B3H  1
P2_4 . . . . . . . . . . . . . . . . .  ABSBIT   -----  BIT      00A4H  1
REN0 . . . . . . . . . . . . . . . . .  ABSBIT   -----  BIT      009CH  1
P1_5 . . . . . . . . . . . . . . . . .  ABSBIT   -----  BIT      0095H  1
P0_6 . . . . . . . . . . . . . . . . .  ABSBIT   -----  BIT      0086H  1
UR2_FCR. . . . . . . . . . . . . . . .  SFR      DATA   U_CHAR   00E3H  1
CCAPM0 . . . . . . . . . . . . . . . .  SFR      DATA   U_CHAR   00D1H  1
T2IF . . . . . . . . . . . . . . . . .  SFR      DATA   U_CHAR   00C9H  1
CCAPL1 . . . . . . . . . . . . . . . .  SFR      DATA   U_CHAR   00B2H  1
REN1 . . . . . . . . . . . . . . . . .  ABSBIT   -----  BIT      00C4H  1
P3_4 . . . . . . . . . . . . . . . . .  ABSBIT   -----  BIT      00B4H  1
P2_5 . . . . . . . . . . . . . . . . .  ABSBIT   -----  BIT      00A5H  1
P1_6 . . . . . . . . . . . . . . . . .  ABSBIT   -----  BIT      0096H  1
P0_7 . . . . . . . . . . . . . . . . .  ABSBIT   -----  BIT      0087H  1
UR2_DLL. . . . . . . . . . . . . . . .  SFR      DATA   U_CHAR   00E1H  1
CCAPM1 . . . . . . . . . . . . . . . .  SFR      DATA   U_CHAR   00D2H  1
CCAPL2 . . . . . . . . . . . . . . . .  SFR      DATA   U_CHAR   00B3H  1
XMRLR. . . . . . . . . . . . . . . . .  SFR      DATA   U_CHAR   00A6H  1
P3_5 . . . . . . . . . . . . . . . . .  ABSBIT   -----  BIT      00B5H  1
P2_6 . . . . . . . . . . . . . . . . .  ABSBIT   -----  BIT      00A6H  1
P1_7 . . . . . . . . . . . . . . . . .  ABSBIT   -----  BIT      0097H  1
CCAPM2 . . . . . . . . . . . . . . . .  SFR      DATA   U_CHAR   00D3H  1
CCAPL3 . . . . . . . . . . . . . . . .  SFR      DATA   U_CHAR   00B4H  1
XMWHR. . . . . . . . . . . . . . . . .  SFR      DATA   U_CHAR   00A5H  1
uart0_TxFlag . . . . . . . . . . . . .  STATIC   XDATA  U_CHAR   0008H  1
P3_6 . . . . . . . . . . . . . . . . .  ABSBIT   -----  BIT      00B6H  1
P2_7 . . . . . . . . . . . . . . . . .  ABSBIT   -----  BIT      00A7H  1
CCAPM3 . . . . . . . . . . . . . . . .  SFR      DATA   U_CHAR   00D4H  1
C51 COMPILER V8.06   UART                                                                  03/10/2026 15:30:57 PAGE 90  

NAME                                    CLASS   MSPACE  TYPE    OFFSET  SIZE
====                                    =====   ======  ====    ======  ====


IP . . . . . . . . . . . . . . . . . .  SFR      DATA   U_CHAR   00B8H  1
CCAPL4 . . . . . . . . . . . . . . . .  SFR      DATA   U_CHAR   00B5H  1
uart1_TxFlag . . . . . . . . . . . . .  STATIC   XDATA  U_CHAR   0009H  1
P3_7 . . . . . . . . . . . . . . . . .  ABSBIT   -----  BIT      00B7H  1
CCAPM4 . . . . . . . . . . . . . . . .  SFR      DATA   U_CHAR   00D5H  1
DBAR . . . . . . . . . . . . . . . . .  SFR      DATA   U_CHAR   009AH  1
UR2_IER. . . . . . . . . . . . . . . .  SFR      DATA   U_CHAR   00E2H  1
uart0_GetKey . . . . . . . . . . . . .  PUBLIC   CODE   PROC     0000H  -----
  c. . . . . . . . . . . . . . . . . .  * REG *  DATA   U_CHAR   0005H  1
CY . . . . . . . . . . . . . . . . . .  ABSBIT   -----  BIT      00D7H  1
INT0 . . . . . . . . . . . . . . . . .  ABSBIT   -----  BIT      00B2H  1
UR2_LCR. . . . . . . . . . . . . . . .  SFR      DATA   U_CHAR   00E4H  1
XMWLR. . . . . . . . . . . . . . . . .  SFR      DATA   U_CHAR   00A4H  1
uart1_GetKey . . . . . . . . . . . . .  PUBLIC   CODE   PROC     0000H  -----
  c. . . . . . . . . . . . . . . . . .  * REG *  DATA   U_CHAR   0005H  1
uart0_ShowRxBuffer . . . . . . . . . .  PUBLIC   CODE   PROC     0000H  -----
  i. . . . . . . . . . . . . . . . . .  AUTO     XDATA  U_INT    0000H  2
INT1 . . . . . . . . . . . . . . . . .  ABSBIT   -----  BIT      00B3H  1
UR2_MCR. . . . . . . . . . . . . . . .  SFR      DATA   U_CHAR   00E5H  1
DPX0 . . . . . . . . . . . . . . . . .  SFR      DATA   U_CHAR   0093H  1
I2CCIR . . . . . . . . . . . . . . . .  SFR      DATA   U_CHAR   0096H  1
DPX1 . . . . . . . . . . . . . . . . .  SFR      DATA   U_CHAR   0095H  1
UR2_IIR. . . . . . . . . . . . . . . .  SFR      DATA   U_CHAR   00E3H  1
_uart0_RxBufUpdate . . . . . . . . . .  PUBLIC   CODE   PROC     0000H  -----
  cnt. . . . . . . . . . . . . . . . .  * REG *  DATA   U_CHAR   0003H  1
_uart_ShowBuffer . . . . . . . . . . .  PUBLIC   CODE   PROC     0000H  -----
  pd . . . . . . . . . . . . . . . . .  AUTO     XDATA  PTR      0000H  3
  eol. . . . . . . . . . . . . . . . .  AUTO     XDATA  U_CHAR   0003H  1
  i. . . . . . . . . . . . . . . . . .  AUTO     XDATA  U_INT    0004H  2
UR2_RBR. . . . . . . . . . . . . . . .  SFR      DATA   U_CHAR   00E1H  1
_uart1_RxBufUpdate . . . . . . . . . .  PUBLIC   CODE   PROC     0000H  -----
  cnt. . . . . . . . . . . . . . . . .  * REG *  DATA   U_CHAR   0003H  1
ACON . . . . . . . . . . . . . . . . .  SFR      DATA   U_CHAR   009DH  1
DCIR . . . . . . . . . . . . . . . . .  SFR      DATA   U_CHAR   009BH  1
SP . . . . . . . . . . . . . . . . . .  SFR      DATA   U_CHAR   0081H  1
CCON . . . . . . . . . . . . . . . . .  SFR      DATA   U_CHAR   00C3H  1
CMOD . . . . . . . . . . . . . . . . .  SFR      DATA   U_CHAR   00C2H  1
OV . . . . . . . . . . . . . . . . . .  ABSBIT   -----  BIT      00D2H  1
uart0_RxTail . . . . . . . . . . . . .  PUBLIC   XDATA  U_INT    000AH  2
uart0_RxCount. . . . . . . . . . . . .  PUBLIC   XDATA  U_INT    000CH  2
uart1_RxTail . . . . . . . . . . . . .  PUBLIC   XDATA  U_INT    000EH  2
uart1_RxCount. . . . . . . . . . . . .  PUBLIC   XDATA  U_INT    0010H  2
ulong. . . . . . . . . . . . . . . . .  TYPEDEF  -----  U_LONG   -----  4
uart0_TxCount. . . . . . . . . . . . .  STATIC   XDATA  U_INT    0012H  2
uart0_TxTail . . . . . . . . . . . . .  STATIC   XDATA  U_INT    0014H  2
WR . . . . . . . . . . . . . . . . . .  ABSBIT   -----  BIT      00B6H  1
UR2_THR. . . . . . . . . . . . . . . .  SFR      DATA   U_CHAR   00E1H  1
uart1_TxCount. . . . . . . . . . . . .  STATIC   XDATA  U_INT    0016H  2
uart1_TxTail . . . . . . . . . . . . .  STATIC   XDATA  U_INT    0018H  2
EWDI . . . . . . . . . . . . . . . . .  ABSBIT   -----  BIT      00EDH  1
_uart0_setBaudRate . . . . . . . . . .  PUBLIC   CODE   PROC     0000H  -----
  baudrate . . . . . . . . . . . . . .  * REG *  DATA   U_CHAR   0007H  1
  t. . . . . . . . . . . . . . . . . .  AUTO     XDATA  U_CHAR   0000H  1
  sysClk . . . . . . . . . . . . . . .  AUTO     XDATA  U_CHAR   0001H  1
  xcap . . . . . . . . . . . . . . . .  AUTO     XDATA  U_INT    0002H  2
WDIF . . . . . . . . . . . . . . . . .  ABSBIT   -----  BIT      00DBH  1
RLDH . . . . . . . . . . . . . . . . .  SFR      DATA   U_CHAR   00CBH  1
C51 COMPILER V8.06   UART                                                                  03/10/2026 15:30:57 PAGE 91  

NAME                                    CLASS   MSPACE  TYPE    OFFSET  SIZE
====                                    =====   ======  ====    ======  ====


EPCR . . . . . . . . . . . . . . . . .  SFR      DATA   U_CHAR   00BEH  1
LDHR . . . . . . . . . . . . . . . . .  SFR      DATA   U_CHAR   00AAH  1
UR2_LSR. . . . . . . . . . . . . . . .  SFR      DATA   U_CHAR   00E6H  1
EPDR . . . . . . . . . . . . . . . . .  SFR      DATA   U_CHAR   00BFH  1
MCIR . . . . . . . . . . . . . . . . .  SFR      DATA   U_CHAR   00B6H  1
RCLK . . . . . . . . . . . . . . . . .  ABSBIT   -----  BIT      00CDH  1
UR2_MSR. . . . . . . . . . . . . . . .  SFR      DATA   U_CHAR   00E7H  1
bool . . . . . . . . . . . . . . . . .  TYPEDEF  -----  U_INT    -----  2
TCLK . . . . . . . . . . . . . . . . .  ABSBIT   -----  BIT      00CCH  1
RLDL . . . . . . . . . . . . . . . . .  SFR      DATA   U_CHAR   00CAH  1
LDLR . . . . . . . . . . . . . . . . .  SFR      DATA   U_CHAR   00A9H  1
PCON . . . . . . . . . . . . . . . . .  SFR      DATA   U_CHAR   0087H  1
CANCIR . . . . . . . . . . . . . . . .  SFR      DATA   U_CHAR   00DEH  1
_UART_ParityChk. . . . . . . . . . . .  PUBLIC   CODE   PROC     0000H  -----
  checkByte. . . . . . . . . . . . . .  AUTO     XDATA  CHAR     0000H  1
  bitSum . . . . . . . . . . . . . . .  * REG *  DATA   U_CHAR   0001H  1
  i. . . . . . . . . . . . . . . . . .  * REG *  DATA   U_INT    0004H  2
TCIR . . . . . . . . . . . . . . . . .  SFR      DATA   U_CHAR   00AEH  1
uart0_TxChk. . . . . . . . . . . . . .  PUBLIC   CODE   PROC     0000H  -----
uart1_TxChk. . . . . . . . . . . . . .  PUBLIC   CODE   PROC     0000H  -----
_uart_Init . . . . . . . . . . . . . .  PUBLIC   CODE   PROC     0000H  -----
  port . . . . . . . . . . . . . . . .  AUTO     XDATA  U_CHAR   0000H  1
  baudrate . . . . . . . . . . . . . .  AUTO     XDATA  INT      0001H  2
  parity . . . . . . . . . . . . . . .  AUTO     XDATA  INT      0003H  2
PWDI . . . . . . . . . . . . . . . . .  ABSBIT   -----  BIT      00FDH  1
LSCR . . . . . . . . . . . . . . . . .  SFR      DATA   U_CHAR   00A2H  1
TMOD . . . . . . . . . . . . . . . . .  SFR      DATA   U_CHAR   0089H  1
TCON . . . . . . . . . . . . . . . . .  SFR      DATA   U_CHAR   0088H  1
byte . . . . . . . . . . . . . . . . .  TYPEDEF  -----  U_CHAR   -----  1
uart0_RxBuf. . . . . . . . . . . . . .  PUBLIC   XDATA  ARRAY    001AH  256
uart1_RxBuf. . . . . . . . . . . . . .  PUBLIC   XDATA  ARRAY    011AH  256
uart0_TxBuf. . . . . . . . . . . . . .  STATIC   XDATA  ARRAY    021AH  256
uart1_TxBuf. . . . . . . . . . . . . .  STATIC   XDATA  ARRAY    031AH  256
OWDR . . . . . . . . . . . . . . . . .  SFR      DATA   U_CHAR   00D7H  1
uart0_ISR. . . . . . . . . . . . . . .  STATIC   CODE   PROC     0000H  -----
  tmp. . . . . . . . . . . . . . . . .  * REG *  DATA   U_CHAR   0007H  1
word . . . . . . . . . . . . . . . . .  TYPEDEF  -----  U_INT    -----  2
IE0. . . . . . . . . . . . . . . . . .  ABSBIT   -----  BIT      0089H  1
uart1_ISR. . . . . . . . . . . . . . .  STATIC   CODE   PROC     0000H  -----
  tmp. . . . . . . . . . . . . . . . .  * REG *  DATA   U_CHAR   0007H  1
IE1. . . . . . . . . . . . . . . . . .  ABSBIT   -----  BIT      008BH  1
MXAX . . . . . . . . . . . . . . . . .  SFR      DATA   U_CHAR   00EAH  1
LMSR . . . . . . . . . . . . . . . . .  SFR      DATA   U_CHAR   00A1H  1
sint . . . . . . . . . . . . . . . . .  TYPEDEF  -----  INT      -----  2
MD0. . . . . . . . . . . . . . . . . .  SFR      DATA   U_CHAR   00F9H  1
B. . . . . . . . . . . . . . . . . . .  SFR      DATA   U_CHAR   00F0H  1
uint . . . . . . . . . . . . . . . . .  TYPEDEF  -----  U_INT    -----  2
MD1. . . . . . . . . . . . . . . . . .  SFR      DATA   U_CHAR   00FAH  1
LSAIER . . . . . . . . . . . . . . . .  SFR      DATA   U_CHAR   00A1H  1
MD2. . . . . . . . . . . . . . . . . .  SFR      DATA   U_CHAR   00FBH  1
WTRF . . . . . . . . . . . . . . . . .  ABSBIT   -----  BIT      00DAH  1
MD3. . . . . . . . . . . . . . . . . .  SFR      DATA   U_CHAR   00FCH  1
PISSR1 . . . . . . . . . . . . . . . .  SFR      DATA   U_CHAR   009EH  1
_uart0_PutStr. . . . . . . . . . . . .  PUBLIC   CODE   PROC     0000H  -----
  pData. . . . . . . . . . . . . . . .  AUTO     XDATA  PTR      0000H  3
  cnt. . . . . . . . . . . . . . . . .  AUTO     XDATA  U_CHAR   0003H  1
  count. . . . . . . . . . . . . . . .  * REG *  DATA   U_INT    0006H  2
C51 COMPILER V8.06   UART                                                                  03/10/2026 15:30:57 PAGE 92  

NAME                                    CLASS   MSPACE  TYPE    OFFSET  SIZE
====                                    =====   ======  ====    ======  ====


  offset . . . . . . . . . . . . . . .  AUTO     XDATA  U_INT    0004H  2
MD4. . . . . . . . . . . . . . . . . .  SFR      DATA   U_CHAR   00FDH  1
LSSR . . . . . . . . . . . . . . . . .  SFR      DATA   U_CHAR   00A3H  1
PISSR2 . . . . . . . . . . . . . . . .  SFR      DATA   U_CHAR   009FH  1
_uart1_PutStr. . . . . . . . . . . . .  PUBLIC   CODE   PROC     0000H  -----
  pData. . . . . . . . . . . . . . . .  AUTO     XDATA  PTR      0000H  3
  cnt. . . . . . . . . . . . . . . . .  AUTO     XDATA  U_CHAR   0003H  1
  count. . . . . . . . . . . . . . . .  * REG *  DATA   U_INT    0006H  2
  offset . . . . . . . . . . . . . . .  AUTO     XDATA  U_INT    0004H  2
MD5. . . . . . . . . . . . . . . . . .  SFR      DATA   U_CHAR   00FEH  1
ACC. . . . . . . . . . . . . . . . . .  SFR      DATA   U_CHAR   00E0H  1
ES0. . . . . . . . . . . . . . . . . .  ABSBIT   -----  BIT      00ACH  1
CT2. . . . . . . . . . . . . . . . . .  ABSBIT   -----  BIT      00C9H  1
ES1. . . . . . . . . . . . . . . . . .  ABSBIT   -----  BIT      00AEH  1
ET0. . . . . . . . . . . . . . . . . .  ABSBIT   -----  BIT      00A9H  1
ET1. . . . . . . . . . . . . . . . . .  ABSBIT   -----  BIT      00ABH  1
TF0. . . . . . . . . . . . . . . . . .  ABSBIT   -----  BIT      008DH  1
ET2. . . . . . . . . . . . . . . . . .  ABSBIT   -----  BIT      00ADH  1
RI0. . . . . . . . . . . . . . . . . .  ABSBIT   -----  BIT      0098H  1
TF1. . . . . . . . . . . . . . . . . .  ABSBIT   -----  BIT      008FH  1
TF2. . . . . . . . . . . . . . . . . .  ABSBIT   -----  BIT      00CFH  1
RI1. . . . . . . . . . . . . . . . . .  ABSBIT   -----  BIT      00C0H  1
SPICIR . . . . . . . . . . . . . . . .  SFR      DATA   U_CHAR   00CEH  1
TH0. . . . . . . . . . . . . . . . . .  SFR      DATA   U_CHAR   008CH  1
EX0. . . . . . . . . . . . . . . . . .  ABSBIT   -----  BIT      00A8H  1
TI0. . . . . . . . . . . . . . . . . .  ABSBIT   -----  BIT      0099H  1
IT0. . . . . . . . . . . . . . . . . .  ABSBIT   -----  BIT      0088H  1
TH1. . . . . . . . . . . . . . . . . .  SFR      DATA   U_CHAR   008DH  1
TI1. . . . . . . . . . . . . . . . . .  ABSBIT   -----  BIT      00C1H  1
EX1. . . . . . . . . . . . . . . . . .  ABSBIT   -----  BIT      00AAH  1
IT1. . . . . . . . . . . . . . . . . .  ABSBIT   -----  BIT      008AH  1
TH2. . . . . . . . . . . . . . . . . .  SFR      DATA   U_CHAR   00CDH  1
P. . . . . . . . . . . . . . . . . . .  ABSBIT   -----  BIT      00D0H  1
uart0_DisplayRxPointers. . . . . . . .  PUBLIC   CODE   PROC     0000H  -----
TL0. . . . . . . . . . . . . . . . . .  SFR      DATA   U_CHAR   008AH  1
_uart1_DisplayRxPointers . . . . . . .  PUBLIC   CODE   PROC     0000H  -----
  crlf . . . . . . . . . . . . . . . .  AUTO     XDATA  U_CHAR   0000H  1
CSREPR . . . . . . . . . . . . . . . .  SFR      DATA   U_CHAR   008FH  1
TL1. . . . . . . . . . . . . . . . . .  SFR      DATA   U_CHAR   008BH  1
TL2. . . . . . . . . . . . . . . . . .  SFR      DATA   U_CHAR   00CCH  1
PS0. . . . . . . . . . . . . . . . . .  ABSBIT   -----  BIT      00BCH  1
EIE. . . . . . . . . . . . . . . . . .  SFR      DATA   U_CHAR   00E8H  1
WTST . . . . . . . . . . . . . . . . .  SFR      DATA   U_CHAR   0092H  1
PS1. . . . . . . . . . . . . . . . . .  ABSBIT   -----  BIT      00BEH  1
PT0. . . . . . . . . . . . . . . . . .  ABSBIT   -----  BIT      00B9H  1
EIF. . . . . . . . . . . . . . . . . .  SFR      DATA   U_CHAR   0091H  1
UA0_GetCount . . . . . . . . . . . . .  PUBLIC   CODE   PROC     0000H  -----
RS0. . . . . . . . . . . . . . . . . .  ABSBIT   -----  BIT      00D3H  1
PT1. . . . . . . . . . . . . . . . . .  ABSBIT   -----  BIT      00BBH  1
I2CDR. . . . . . . . . . . . . . . . .  SFR      DATA   U_CHAR   0097H  1
uart0_Mode . . . . . . . . . . . . . .  STATIC   XDATA  U_CHAR   041AH  1
UA1_GetCount . . . . . . . . . . . . .  PUBLIC   CODE   PROC     0000H  -----
RS1. . . . . . . . . . . . . . . . . .  ABSBIT   -----  BIT      00D4H  1
PT2. . . . . . . . . . . . . . . . . .  ABSBIT   -----  BIT      00BDH  1
TR0. . . . . . . . . . . . . . . . . .  ABSBIT   -----  BIT      008CH  1
uart1_Mode . . . . . . . . . . . . . .  PUBLIC   XDATA  U_CHAR   041BH  1
TR1. . . . . . . . . . . . . . . . . .  ABSBIT   -----  BIT      008EH  1
C51 COMPILER V8.06   UART                                                                  03/10/2026 15:30:57 PAGE 93  

NAME                                    CLASS   MSPACE  TYPE    OFFSET  SIZE
====                                    =====   ======  ====    ======  ====


TR2. . . . . . . . . . . . . . . . . .  ABSBIT   -----  BIT      00CAH  1
PX0. . . . . . . . . . . . . . . . . .  ABSBIT   -----  BIT      00B8H  1
PX1. . . . . . . . . . . . . . . . . .  ABSBIT   -----  BIT      00BAH  1
DDR. . . . . . . . . . . . . . . . . .  SFR      DATA   U_CHAR   009CH  1
_uart0_RxBufCmp. . . . . . . . . . . .  PUBLIC   CODE   PROC     0000H  -----
  pData. . . . . . . . . . . . . . . .  AUTO     XDATA  PTR      0000H  3
  len. . . . . . . . . . . . . . . . .  AUTO     XDATA  U_CHAR   0003H  1
  offset . . . . . . . . . . . . . . .  AUTO     XDATA  U_INT    0004H  2
  result . . . . . . . . . . . . . . .  AUTO     XDATA  U_CHAR   0006H  1
_uart1_RxBufCmp. . . . . . . . . . . .  PUBLIC   CODE   PROC     0000H  -----
  pData. . . . . . . . . . . . . . . .  AUTO     XDATA  PTR      0000H  3
  len. . . . . . . . . . . . . . . . .  AUTO     XDATA  U_CHAR   0003H  1
  offset . . . . . . . . . . . . . . .  AUTO     XDATA  U_INT    0004H  2
  result . . . . . . . . . . . . . . .  AUTO     XDATA  U_CHAR   0006H  1
DPH. . . . . . . . . . . . . . . . . .  SFR      DATA   U_CHAR   0083H  1
EIP. . . . . . . . . . . . . . . . . .  SFR      DATA   U_CHAR   00F8H  1
DPL. . . . . . . . . . . . . . . . . .  SFR      DATA   U_CHAR   0082H  1
LCR. . . . . . . . . . . . . . . . . .  SFR      DATA   U_CHAR   00A2H  1
SBUF0. . . . . . . . . . . . . . . . .  SFR      DATA   U_CHAR   0099H  1
SBUF1. . . . . . . . . . . . . . . . .  SFR      DATA   U_CHAR   00C1H  1
EINT2. . . . . . . . . . . . . . . . .  ABSBIT   -----  BIT      00E8H  1
EXEN2. . . . . . . . . . . . . . . . .  ABSBIT   -----  BIT      00CBH  1
MDR. . . . . . . . . . . . . . . . . .  SFR      DATA   U_CHAR   00B7H  1
EINT3. . . . . . . . . . . . . . . . .  ABSBIT   -----  BIT      00E9H  1
CPRL2. . . . . . . . . . . . . . . . .  ABSBIT   -----  BIT      00C8H  1
SCON0. . . . . . . . . . . . . . . . .  SFR      DATA   U_CHAR   0098H  1
_uart0_Init. . . . . . . . . . . . . .  STATIC   CODE   PROC     0000H  -----
  baudrate . . . . . . . . . . . . . .  AUTO     XDATA  U_CHAR   0000H  1
  parity . . . . . . . . . . . . . . .  AUTO     XDATA  INT      0001H  2
  sysClk . . . . . . . . . . . . . . .  AUTO     XDATA  U_CHAR   0003H  1
EINT4. . . . . . . . . . . . . . . . .  ABSBIT   -----  BIT      00EAH  1
SCON1. . . . . . . . . . . . . . . . .  SFR      DATA   U_CHAR   00C0H  1
SDSTSR . . . . . . . . . . . . . . . .  SFR      DATA   U_CHAR   0094H  1
_uart1_Init. . . . . . . . . . . . . .  STATIC   CODE   PROC     0000H  -----
  baudrate . . . . . . . . . . . . . .  AUTO     XDATA  U_CHAR   0000H  1
  parity . . . . . . . . . . . . . . .  AUTO     XDATA  INT      0001H  2
  sysClk . . . . . . . . . . . . . . .  * REG *  DATA   U_CHAR   0007H  1
uartPort . . . . . . . . . . . . . . .  STATIC   XDATA  U_CHAR   041CH  1
EINT5. . . . . . . . . . . . . . . . .  ABSBIT   -----  BIT      00EBH  1
STATUS . . . . . . . . . . . . . . . .  SFR      DATA   U_CHAR   00E9H  1
_uart0_RxBufSet. . . . . . . . . . . .  PUBLIC   CODE   PROC     0000H  -----
  c. . . . . . . . . . . . . . . . . .  AUTO     XDATA  U_CHAR   0000H  1
  len. . . . . . . . . . . . . . . . .  AUTO     XDATA  U_INT    0001H  2
  offset . . . . . . . . . . . . . . .  AUTO     XDATA  U_INT    0003H  2
EINT6. . . . . . . . . . . . . . . . .  ABSBIT   -----  BIT      00ECH  1
T2CON. . . . . . . . . . . . . . . . .  SFR      DATA   U_CHAR   00C8H  1
DPS. . . . . . . . . . . . . . . . . .  SFR      DATA   U_CHAR   0086H  1
_uart1_RxBufSet. . . . . . . . . . . .  PUBLIC   CODE   PROC     0000H  -----
  c. . . . . . . . . . . . . . . . . .  AUTO     XDATA  U_CHAR   0000H  1
  len. . . . . . . . . . . . . . . . .  AUTO     XDATA  U_INT    0001H  2
  offset . . . . . . . . . . . . . . .  AUTO     XDATA  U_INT    0003H  2
uart0_NoBlockGetkey. . . . . . . . . .  PUBLIC   CODE   PROC     0000H  -----
  c. . . . . . . . . . . . . . . . . .  * REG *  DATA   CHAR     0005H  1
CANDR. . . . . . . . . . . . . . . . .  SFR      DATA   U_CHAR   00DFH  1
uart1_NoBlockGetkey. . . . . . . . . .  PUBLIC   CODE   PROC     0000H  -----
  c. . . . . . . . . . . . . . . . . .  * REG *  DATA   CHAR     0005H  1
TDR. . . . . . . . . . . . . . . . . .  SFR      DATA   U_CHAR   00AFH  1
C51 COMPILER V8.06   UART                                                                  03/10/2026 15:30:57 PAGE 94  

NAME                                    CLASS   MSPACE  TYPE    OFFSET  SIZE
====                                    =====   ======  ====    ======  ====


LDAHR. . . . . . . . . . . . . . . . .  SFR      DATA   U_CHAR   00A5H  1
DPX. . . . . . . . . . . . . . . . . .  SFR      DATA   U_CHAR   0093H  1
DMAHR. . . . . . . . . . . . . . . . .  SFR      DATA   U_CHAR   00ADH  1
PINT2. . . . . . . . . . . . . . . . .  ABSBIT   -----  BIT      00F8H  1
RXD. . . . . . . . . . . . . . . . . .  ABSBIT   -----  BIT      00B0H  1
PINT3. . . . . . . . . . . . . . . . .  ABSBIT   -----  BIT      00F9H  1
CKCON. . . . . . . . . . . . . . . . .  SFR      DATA   U_CHAR   008EH  1
PINT4. . . . . . . . . . . . . . . . .  ABSBIT   -----  BIT      00FAH  1
EWT. . . . . . . . . . . . . . . . . .  ABSBIT   -----  BIT      00D9H  1
TXD. . . . . . . . . . . . . . . . . .  ABSBIT   -----  BIT      00B1H  1
LDALR. . . . . . . . . . . . . . . . .  SFR      DATA   U_CHAR   00A4H  1
PINT5. . . . . . . . . . . . . . . . .  ABSBIT   -----  BIT      00FBH  1
DMALR. . . . . . . . . . . . . . . . .  SFR      DATA   U_CHAR   00ABH  1
LSR. . . . . . . . . . . . . . . . . .  SFR      DATA   U_CHAR   00A3H  1
PINT6. . . . . . . . . . . . . . . . .  ABSBIT   -----  BIT      00FCH  1
DMAMR. . . . . . . . . . . . . . . . .  SFR      DATA   U_CHAR   00ACH  1
_UART_SetPort. . . . . . . . . . . . .  PUBLIC   CODE   PROC     0000H  -----
  portNum. . . . . . . . . . . . . . .  * REG *  DATA   U_CHAR   0007H  1
ARCON. . . . . . . . . . . . . . . . .  SFR      DATA   U_CHAR   00FFH  1
F0 . . . . . . . . . . . . . . . . . .  ABSBIT   -----  BIT      00D5H  1
F1 . . . . . . . . . . . . . . . . . .  ABSBIT   -----  BIT      00D1H  1
LDCSR. . . . . . . . . . . . . . . . .  SFR      DATA   U_CHAR   00A6H  1
PSW. . . . . . . . . . . . . . . . . .  SFR      DATA   U_CHAR   00D0H  1
RB08 . . . . . . . . . . . . . . . . .  ABSBIT   -----  BIT      009AH  1
WDCON. . . . . . . . . . . . . . . . .  SFR      DATA   U_CHAR   00D8H  1
RWT. . . . . . . . . . . . . . . . . .  ABSBIT   -----  BIT      00D8H  1
RB18 . . . . . . . . . . . . . . . . .  ABSBIT   -----  BIT      00C2H  1


MODULE INFORMATION:   STATIC OVERLAYABLE
   CODE SIZE        =   4224    ----
   CONSTANT SIZE    =    591    ----
   XDATA SIZE       =   1053      84
   PDATA SIZE       =   ----    ----
   DATA SIZE        =   ----    ----
   IDATA SIZE       =   ----    ----
   BIT SIZE         =   ----    ----
   EDATA SIZE       =   ----    ----
   HDATA SIZE       =   ----    ----
   XDATA CONST SIZE =   ----    ----
   FAR CONST SIZE   =   ----    ----
END OF MODULE INFORMATION.


C51 COMPILATION COMPLETE.  0 WARNING(S),  0 ERROR(S)
